Certificate:
    Data:
        Version: 3 (0x2)
        Serial Number: 4 (0x4)
        Signature Algorithm: md5WithRSAEncryption
        Issuer: C=RU, ST=Some-State, L=St-Petersburg, O=Test, OU=test, CN=Tester/Email=test@test.com
        Validity
            Not Before: Feb 11 16:02:08 2003 GMT
            Not After : Feb 10 16:02:08 2007 GMT
        Subject: C=RU, ST=Some-State, O=Test, OU=Recipient unit, CN=Recipient/Email=recipient@test.com
        Subject Public Key Info:
            Public Key Algorithm: rsaEncryption
            RSA Public Key: (4096 bit)
                Modulus (4096 bit):
                    00:af:b6:6f:04:9f:81:cc:44:a4:b1:f1:0c:c1:7c:
                    d7:41:9d:8c:10:df:dc:f2:8f:b5:13:ce:f6:03:8d:
                    0b:b3:f0:bf:b8:dd:cc:f6:4d:26:8c:41:9a:cd:08:
                    60:36:68:0d:4d:5c:c3:b5:2a:71:cc:39:de:19:19:
                    61:fb:80:64:5c:ac:64:b8:66:c2:2d:77:2b:8e:5c:
                    88:82:41:51:f8:d8:8b:35:4f:80:66:57:8c:2e:a4:
                    cb:4b:4f:c3:38:69:ec:43:c7:00:00:b0:0c:db:01:
                    50:d2:2c:6e:b0:a5:83:8a:dc:aa:0a:84:a4:4c:82:
                    f3:77:e1:a9:a2:cc:20:36:80:65:86:62:2b:50:4a:
                    2c:86:d0:c5:f0:52:7b:ca:5a:04:a9:ed:28:57:bc:
                    07:e5:e3:a1:a7:60:01:69:09:eb:e5:2c:75:61:53:
                    4a:e7:00:3b:b6:e9:3c:e2:d2:b3:99:76:d9:5f:70:
                    a4:7f:3c:d1:46:1e:8e:ea:9d:a3:c0:95:d5:a5:45:
                    ba:68:64:fb:92:5c:23:05:2e:36:50:aa:0a:68:ba:
                    23:cd:92:29:42:f8:d6:d8:14:09:e7:f2:52:c5:f1:
                    9a:c8:9a:aa:4e:bc:26:9f:19:00:bf:46:37:d4:3d:
                    f3:b8:72:aa:b5:05:a5:94:31:2c:dc:9c:bb:e3:a1:
                    1e:82:03:ca:29:b5:d4:64:43:51:4c:f2:77:04:bb:
                    43:97:a3:a5:e7:56:13:47:4c:02:36:db:d9:53:20:
                    da:bb:a6:d9:54:36:dc:76:15:e0:eb:d7:50:9c:72:
                    66:6c:7d:59:2f:dd:51:d6:7c:b6:2d:f3:0e:f9:7a:
                    cf:0f:63:59:3a:6b:8e:3f:c7:76:b0:11:1b:12:e5:
                    b9:90:66:30:d2:f6:ba:04:de:33:27:58:61:8f:ed:
                    ed:14:b8:df:2e:5a:b5:cc:ff:a3:72:1c:ef:46:09:
                    37:1c:81:ca:13:e9:43:9f:38:fb:69:bb:64:21:9e:
                    e4:b4:44:be:79:61:52:46:cf:a5:83:7f:b5:c7:91:
                    5b:28:92:17:d2:5e:45:4b:ad:9f:c7:53:fb:1c:3c:
                    e7:56:92:a7:9f:e7:e3:59:19:36:64:8c:8c:78:00:
                    2a:f7:93:2d:79:90:91:e1:73:31:24:ca:4b:4d:9b:
                    1e:35:61:8a:3f:0c:f8:c8:c0:76:6f:01:d8:2b:c1:
                    e0:0a:f1:fb:c7:a0:2b:48:30:d4:30:bf:47:2b:e5:
                    b9:8d:64:e1:d4:3a:80:71:60:1e:02:02:d2:1a:f2:
                    2c:b2:88:d6:21:da:27:83:36:6c:51:45:e3:72:39:
                    83:16:65:5c:58:e6:14:87:02:95:88:07:f9:b3:20:
                    58:d9:91
                Exponent: 65537 (0x10001)
        X509v3 extensions:
            X509v3 Basic Constraints: 
                CA:FALSE
            Netscape Comment: 
                OpenSSL Generated Certificate
            X509v3 Subject Key Identifier: 
                48:07:DC:D8:10:D8:20:53:F5:7E:23:52:84:81:E7:2C:F3:16:BC:DB
            X509v3 Authority Key Identifier: 
                keyid:93:36:60:EE:DE:2D:B2:D2:D2:92:A3:FA:B0:62:EC:37:7E:7E:2C:F2
                DirName:/C=RU/ST=Some-State/L=St-Petersburg/O=Test/OU=test/CN=Tester/Email=test@test.com
                serial:00

    Signature Algorithm: md5WithRSAEncryption
        73:2c:81:3f:af:86:6a:94:e4:38:d2:b0:a4:8b:6c:06:28:28:
        2e:df:6a:33:b6:21:86:c0:d1:42:5d:f7:2d:ec:c8:fe:d7:b6:
        a0:cf:59:37:19:80:04:d8:b8:08:f9:d1:37:63:3c:53:eb:fb:
        db:26:9a:a2:68:57:97:0c:c5:13:bf:72:3d:c9:5d:61:28:20:
        2b:5d:9e:3f:c2:dd:90:e5:42:c7:2d:d1:23:4c:6c:74:18:15:
        38:58:54:92:d9:34:3a:e1:a0:e7:b1:4c:1b:58:77:36:75:24:
        9f:da:bd:eb:36:55:d5:10:02:c5:51:eb:50:a3:7b:3e:c0:04:
        e4:63:b5:5f:49:8c:5d:5b:d1:82:47:7b:0c:2f:80:c1:0a:f4:
        52:90:bb:f3:d6:18:34:e1:e2:86:cd:e7:91:66:d5:66:81:f6:
        9f:ca:96:a4:59:74:6d:63:d6:a2:ca:d5:b7:d0:f7:e4:97:cf:
        35:85:52:dd:f1:45:6e:f2:7c:50:26:01:b3:13:b9:9c:da:d0:
        f1:a6:cc:91:9b:36:6a:e5:ce:08:67:02:13:ca:90:bd:d5:39:
        2d:af:72:7d:57:7b:34:6b:10:29:f5:db:b5:b3:0c:53:b8:5c:
        86:a4:47:60:1c:e9:38:cc:9d:c9:1d:e8:a2:9a:ae:2e:07:d1:
        47:e7:9d:e8:2f:d1:35:19:ca:aa:1a:f3:48:07:7b:ec:9f:28:
        0a:fb:70:da:b6:2d:6e:5f:72:c1:76:58:13:68:97:81:97:cf:
        ac:d0:0b:61:d8:88:dc:87:c3:e8:08:09:63:59:5f:22:47:70:
        6b:87:0d:ff:af:7c:f0:76:56:2b:3e:4b:ab:0b:b7:17:e7:36:
        26:d3:f0:c4:10:27:64:04:25:ab:e2:cf:46:14:d8:f4:c7:3b:
        4c:95:f0:6f:fe:00:80:70:b1:a7:6d:36:9b:8c:09:26:64:81:
        a5:c7:cd:ae:c6:b4:27:c1:f4:d0:4c:4a:82:17:3a:b6:49:92:
        2a:cd:f8:57:a6:16:7e:22:77:d4:1c:42:ac:cf:c7:9d:fa:b6:
        7a:52:93:24:06:5d:30:2b:9f:15:49:cc:ea:0e:9c:51:e3:c0:
        49:e9:86:16:b9:1c:7f:c6:09:40:14:10:80:0d:4a:8c:73:dc:
        b5:8c:01:8a:60:a0:c5:b8:cd:f3:f2:df:f3:63:ac:29:d6:dd:
        f0:11:4e:e4:21:97:29:ee:62:53:6a:ff:a9:bb:24:4d:89:28:
        b5:50:72:31:e0:71:25:85:7c:d8:5c:e0:00:33:5e:bf:79:81:
        a8:e1:85:54:6b:65:ac:2d:64:6c:1b:9b:db:cb:1e:32:e8:a6:
        e3:1b:7f:17:99:a6:1b:90
-----BEGIN CERTIFICATE-----
MIIGmjCCBIKgAwIBAgIBBDANBgkqhkiG9w0BAQQFADCBhzELMAkGA1UEBhMCUlUx
EzARBgNVBAgTClNvbWUtU3RhdGUxFjAUBgNVBAcTDVN0LVBldGVyc2J1cmcxDTAL
BgNVBAoTBFRlc3QxDTALBgNVBAsTBHRlc3QxDzANBgNVBAMTBlRlc3RlcjEcMBoG
CSqGSIb3DQEJARYNdGVzdEB0ZXN0LmNvbTAeFw0wMzAyMTExNjAyMDhaFw0wNzAy
MTAxNjAyMDhaMIGBMQswCQYDVQQGEwJSVTETMBEGA1UECBMKU29tZS1TdGF0ZTEN
MAsGA1UEChMEVGVzdDEXMBUGA1UECxMOUmVjaXBpZW50IHVuaXQxEjAQBgNVBAMT
CVJlY2lwaWVudDEhMB8GCSqGSIb3DQEJARYScmVjaXBpZW50QHRlc3QuY29tMIIC
IjANBgkqhkiG9w0BAQEFAAOCAg8AMIICCgKCAgEAr7ZvBJ+BzESksfEMwXzXQZ2M
EN/c8o+1E872A40Ls/C/uN3M9k0mjEGazQhgNmgNTVzDtSpxzDneGRlh+4BkXKxk
uGbCLXcrjlyIgkFR+NiLNU+AZleMLqTLS0/DOGnsQ8cAALAM2wFQ0ixusKWDityq
CoSkTILzd+GposwgNoBlhmIrUEoshtDF8FJ7yloEqe0oV7wH5eOhp2ABaQnr5Sx1
YVNK5wA7tuk84tKzmXbZX3CkfzzRRh6O6p2jwJXVpUW6aGT7klwjBS42UKoKaLoj
zZIpQvjW2BQJ5/JSxfGayJqqTrwmnxkAv0Y31D3zuHKqtQWllDEs3Jy746EeggPK
KbXUZENRTPJ3BLtDl6Ol51YTR0wCNtvZUyDau6bZVDbcdhXg69dQnHJmbH1ZL91R
1ny2LfMO+XrPD2NZOmuOP8d2sBEbEuW5kGYw0va6BN4zJ1hhj+3tFLjfLlq1zP+j
chzvRgk3HIHKE+lDnzj7abtkIZ7ktES+eWFSRs+lg3+1x5FbKJIX0l5FS62fx1P7
HDznVpKnn+fjWRk2ZIyMeAAq95MteZCR4XMxJMpLTZseNWGKPwz4yMB2bwHYK8Hg
CvH7x6ArSDDUML9HK+W5jWTh1DqAcWAeAgLSGvIssojWIdongzZsUUXjcjmDFmVc
WOYUhwKViAf5syBY2ZECAwEAAaOCARMwggEPMAkGA1UdEwQCMAAwLAYJYIZIAYb4
QgENBB8WHU9wZW5TU0wgR2VuZXJhdGVkIENlcnRpZmljYXRlMB0GA1UdDgQWBBRI
B9zYENggU/V+I1KEgecs8xa82zCBtAYDVR0jBIGsMIGpgBSTNmDu3i2y0tKSo/qw
Yuw3fn4s8qGBjaSBijCBhzELMAkGA1UEBhMCUlUxEzARBgNVBAgTClNvbWUtU3Rh
dGUxFjAUBgNVBAcTDVN0LVBldGVyc2J1cmcxDTALBgNVBAoTBFRlc3QxDTALBgNV
BAsTBHRlc3QxDzANBgNVBAMTBlRlc3RlcjEcMBoGCSqGSIb3DQEJARYNdGVzdEB0
ZXN0LmNvbYIBADANBgkqhkiG9w0BAQQFAAOCAgEAcyyBP6+GapTkONKwpItsBigo
Lt9qM7YhhsDRQl33LezI/te2oM9ZNxmABNi4CPnRN2M8U+v72yaaomhXlwzFE79y
PcldYSggK12eP8LdkOVCxy3RI0xsdBgVOFhUktk0OuGg57FMG1h3NnUkn9q96zZV
1RACxVHrUKN7PsAE5GO1X0mMXVvRgkd7DC+AwQr0UpC789YYNOHihs3nkWbVZoH2
n8qWpFl0bWPWosrVt9D35JfPNYVS3fFFbvJ8UCYBsxO5nNrQ8abMkZs2auXOCGcC
E8qQvdU5La9yfVd7NGsQKfXbtbMMU7hchqRHYBzpOMydyR3oopquLgfRR+ed6C/R
NRnKqhrzSAd77J8oCvtw2rYtbl9ywXZYE2iXgZfPrNALYdiI3IfD6AgJY1lfIkdw
a4cN/6988HZWKz5Lqwu3F+c2JtPwxBAnZAQlq+LPRhTY9Mc7TJXwb/4AgHCxp202
m4wJJmSBpcfNrsa0J8H00ExKghc6tkmSKs34V6YWfiJ31BxCrM/Hnfq2elKTJAZd
MCufFUnM6g6cUePASemGFrkcf8YJQBQQgA1KjHPctYwBimCgxbjN8/Lf82OsKdbd
8BFO5CGXKe5iU2r/qbskTYkotVByMeBxJYV82FzgADNev3mBqOGFVGtlrC1kbBub
28seMuim4xt/F5mmG5A=
-----END CERTIFICATE-----
