Certificate:
    Data:
        Version: 3 (0x2)
        Serial Number: 9589475111614655190 (0x8514a8ce8a3daad6)
    Signature Algorithm: sha1WithRSAEncryption
        Issuer: C=AU, ST=Some-State, O=Internet Widgits Pty Ltd
        Validity
            Not Before: Jan 27 01:06:54 2014 GMT
            Not After : Jan 25 01:06:54 2024 GMT
        Subject: C=AU, ST=Some-State, O=Internet Widgits Pty Ltd
        Subject Public Key Info:
            Public Key Algorithm: rsaEncryption
                Public-Key: (2048 bit)
                Modulus:
                    00:d7:46:9c:27:4f:9c:7a:18:57:3b:6f:24:ac:b7:
                    76:90:11:2a:f0:ff:70:9c:35:89:c3:a5:e2:3c:17:
                    06:18:7c:e5:b3:e4:4f:c2:0d:0d:09:80:61:e5:4b:
                    f5:25:2f:d2:ad:4d:3d:53:69:09:be:e0:af:fa:4c:
                    e6:d9:3a:ad:94:f1:b2:5e:67:d9:7a:12:e9:b8:07:
                    a3:cf:68:17:6b:1d:b1:44:99:ba:8c:7d:82:e0:d3:
                    ee:b0:19:e7:4d:03:a2:6c:53:e7:c5:eb:4b:a8:a1:
                    8e:e6:41:50:27:63:8f:5a:54:55:63:ed:a1:cf:95:
                    66:97:2b:47:ca:8b:0f:8e:a0:00:1e:05:e4:11:35:
                    f7:b9:fa:08:89:15:b5:7e:0b:a0:25:14:4b:d0:28:
                    b7:eb:8f:4b:06:de:da:9b:e9:ca:83:9f:6b:73:18:
                    1d:1b:e1:71:9d:92:4a:1c:9d:76:92:08:2b:d3:ef:
                    4e:66:cc:be:f1:bb:b1:f4:75:a9:66:f1:bb:85:8e:
                    b1:be:5d:c8:12:ea:1f:40:b0:2e:79:0e:08:ec:11:
                    06:1a:52:f8:5d:1f:5c:95:32:a0:0e:a0:3c:21:86:
                    2f:93:b2:af:c9:b3:ad:12:1d:a5:04:5c:6c:b6:09:
                    ac:60:4c:5a:40:10:d8:28:24:87:c5:b8:6a:b4:f1:
                    8e:7d
                Exponent: 65537 (0x10001)
        X509v3 extensions:
            X509v3 Subject Key Identifier: 
                BD:27:38:21:D3:6A:61:E0:70:3F:05:A4:B1:19:B6:43:63:94:EA:EC
            X509v3 Authority Key Identifier: 
                keyid:BD:27:38:21:D3:6A:61:E0:70:3F:05:A4:B1:19:B6:43:63:94:EA:EC

            X509v3 Basic Constraints: 
                CA:TRUE
    Signature Algorithm: sha1WithRSAEncryption
         64:9d:4a:e0:77:da:6b:ce:e6:6c:79:74:10:77:d8:39:1b:5c:
         15:b3:cc:45:4e:d1:99:14:3b:45:19:d1:f8:6e:13:a8:33:de:
         ef:42:cd:9d:4b:ab:c8:0e:c4:cf:49:ff:cd:6a:e3:68:94:68:
         ef:32:19:ac:f2:2e:87:d1:24:3f:3b:73:1a:bf:ac:e8:ff:5d:
         9a:c8:3d:d1:3a:e7:ce:ec:53:a9:b2:43:4d:2c:f8:1f:3c:97:
         3e:fd:7d:dc:db:9b:10:06:ae:e8:99:07:60:0e:83:b9:e9:1c:
         13:72:78:bb:3a:ca:69:93:64:bb:d6:72:4c:af:f8:d3:c2:25:
         94:59:12:0a:97:c9:ba:62:9d:1b:4f:46:ff:76:c4:4a:81:48:
         0f:d3:0f:20:d0:63:52:8c:ad:7b:13:3e:76:de:05:6a:0c:b7:
         dc:7a:09:7a:c7:aa:b9:c2:be:ad:e0:0e:88:4c:6e:a6:6c:e5:
         5a:56:39:f4:67:d4:21:e2:9e:b3:89:74:ed:d5:f5:b2:07:7b:
         9e:01:7f:31:9b:f4:0e:24:39:0a:a8:d0:e4:ac:bc:10:42:c4:
         c3:38:1d:cf:fd:e5:f7:df:98:55:00:1d:b8:82:9f:67:d7:48:
         e1:8c:1a:53:20:0d:39:18:ad:b7:77:4a:30:16:d7:86:a1:1e:
         51:b0:96:eb
-----BEGIN CERTIFICATE-----
MIIDXTCCAkWgAwIBAgIJAIUUqM6KParWMA0GCSqGSIb3DQEBBQUAMEUxCzAJBgNV
BAYTAkFVMRMwEQYDVQQIDApTb21lLVN0YXRlMSEwHwYDVQQKDBhJbnRlcm5ldCBX
aWRnaXRzIFB0eSBMdGQwHhcNMTQwMTI3MDEwNjU0WhcNMjQwMTI1MDEwNjU0WjBF
MQswCQYDVQQGEwJBVTETMBEGA1UECAwKU29tZS1TdGF0ZTEhMB8GA1UECgwYSW50
ZXJuZXQgV2lkZ2l0cyBQdHkgTHRkMIIBIjANBgkqhkiG9w0BAQEFAAOCAQ8AMIIB
CgKCAQEA10acJ0+cehhXO28krLd2kBEq8P9wnDWJw6XiPBcGGHzls+RPwg0NCYBh
5Uv1JS/SrU09U2kJvuCv+kzm2TqtlPGyXmfZehLpuAejz2gXax2xRJm6jH2C4NPu
sBnnTQOibFPnxetLqKGO5kFQJ2OPWlRVY+2hz5VmlytHyosPjqAAHgXkETX3ufoI
iRW1fgugJRRL0Ci3649LBt7am+nKg59rcxgdG+FxnZJKHJ12kggr0+9OZsy+8bux
9HWpZvG7hY6xvl3IEuofQLAueQ4I7BEGGlL4XR9clTKgDqA8IYYvk7KvybOtEh2l
BFxstgmsYExaQBDYKCSHxbhqtPGOfQIDAQABo1AwTjAdBgNVHQ4EFgQUvSc4IdNq
YeBwPwWksRm2Q2OU6uwwHwYDVR0jBBgwFoAUvSc4IdNqYeBwPwWksRm2Q2OU6uww
DAYDVR0TBAUwAwEB/zANBgkqhkiG9w0BAQUFAAOCAQEAZJ1K4Hfaa87mbHl0EHfY
ORtcFbPMRU7RmRQ7RRnR+G4TqDPe70LNnUuryA7Ez0n/zWrjaJRo7zIZrPIuh9Ek
PztzGr+s6P9dmsg90TrnzuxTqbJDTSz4HzyXPv193NubEAau6JkHYA6DuekcE3J4
uzrKaZNku9ZyTK/408IllFkSCpfJumKdG09G/3bESoFID9MPINBjUoytexM+dt4F
agy33HoJesequcK+reAOiExupmzlWlY59GfUIeKes4l07dX1sgd7ngF/MZv0DiQ5
CqjQ5Ky8EELEwzgdz/3l99+YVQAduIKfZ9dI4YwaUyANORitt3dKMBbXhqEeUbCW
6w==
-----END CERTIFICATE-----
