Certificate:
    Data:
        Version: 3 (0x2)
        Serial Number:
            d9:78:be:75:56:72:8a:14
        Signature Algorithm: sha1WithRSAEncryption
        Issuer: C = US, ST = California, L = Daly City, O = ElectricRain, CN = test.electricrain.com
        Validity
            Not Before: Jan  4 02:12:03 2007 GMT
            Not After : Jan  4 02:12:03 2008 GMT
        Subject: C = US, ST = California, L = Daly City, O = ElectricRain, CN = test.electricrain.com
        Subject Public Key Info:
            Public Key Algorithm: rsaEncryption
                Public-Key: (1024 bit)
                Modulus:
                    00:ed:f2:87:c8:84:ea:50:df:3e:b9:fd:6a:e7:ad:
                    d3:36:ae:9b:82:60:fe:aa:c2:65:47:06:aa:db:77:
                    8d:48:ed:c7:6f:1a:8d:0d:16:72:93:88:c0:99:a1:
                    18:28:a3:1c:ce:c6:cb:6a:b7:65:f8:24:fa:dd:f3:
                    da:46:bb:f0:8c:47:5b:56:bc:83:4e:0d:d0:40:5b:
                    87:a2:ca:06:ce:f5:82:7f:6c:ac:69:62:4e:8c:75:
                    35:93:5e:d8:1a:df:01:62:8e:01:ef:ac:c7:eb:a9:
                    34:9d:89:6c:65:00:4a:22:a8:35:ae:8b:8e:10:f0:
                    69:88:c2:e3:05:39:e0:d7:e5
                Exponent: 65537 (0x10001)
        X509v3 extensions:
            X509v3 Subject Key Identifier: 
                7D:8E:96:74:3A:F0:91:4B:D9:78:2F:07:D4:83:06:14:0A:F8:DE:F0
            X509v3 Authority Key Identifier: 
                keyid:7D:8E:96:74:3A:F0:91:4B:D9:78:2F:07:D4:83:06:14:0A:F8:DE:F0
                DirName:/C=US/ST=California/L=Daly City/O=ElectricRain/CN=test.electricrain.com
                serial:D9:78:BE:75:56:72:8A:14
            X509v3 Basic Constraints: 
                CA:TRUE
    Signature Algorithm: sha1WithRSAEncryption
    Signature Value:
        54:3a:6c:4f:49:4a:9c:c1:be:e3:d6:3c:a3:02:3e:1b:b4:68:
        1d:1b:7f:76:9d:28:73:65:4f:6d:ad:46:10:eb:7f:4f:bf:e2:
        e5:ca:8e:7d:51:15:31:2f:4b:4e:14:8a:9b:35:ad:04:96:21:
        78:f5:e8:f1:73:c7:be:97:83:2a:a5:60:38:8c:5a:b9:94:ba:
        6f:3b:6b:f7:5a:6c:cd:0b:a2:47:99:a4:d6:c0:0f:59:66:8a:
        39:30:83:92:bc:10:d2:52:81:11:98:f2:2d:21:92:3e:50:7e:
        18:43:e5:c6:dc:30:7f:28:ac:bb:a3:70:f0:e2:7b:2e:3a:ce:
        2c:de
-----BEGIN CERTIFICATE-----
MIIDKzCCApSgAwIBAgIJANl4vnVWcooUMA0GCSqGSIb3DQEBBQUAMG0xCzAJBgNV
BAYTAlVTMRMwEQYDVQQIEwpDYWxpZm9ybmlhMRIwEAYDVQQHEwlEYWx5IENpdHkx
FTATBgNVBAoTDEVsZWN0cmljUmFpbjEeMBwGA1UEAxMVdGVzdC5lbGVjdHJpY3Jh
aW4uY29tMB4XDTA3MDEwNDAyMTIwM1oXDTA4MDEwNDAyMTIwM1owbTELMAkGA1UE
BhMCVVMxEzARBgNVBAgTCkNhbGlmb3JuaWExEjAQBgNVBAcTCURhbHkgQ2l0eTEV
MBMGA1UEChMMRWxlY3RyaWNSYWluMR4wHAYDVQQDExV0ZXN0LmVsZWN0cmljcmFp
bi5jb20wgZ8wDQYJKoZIhvcNAQEBBQADgY0AMIGJAoGBAO3yh8iE6lDfPrn9auet
0zaum4Jg/qrCZUcGqtt3jUjtx28ajQ0WcpOIwJmhGCijHM7Gy2q3Zfgk+t3z2ka7
8IxHW1a8g04N0EBbh6LKBs71gn9srGliTox1NZNe2BrfAWKOAe+sx+upNJ2JbGUA
SiKoNa6LjhDwaYjC4wU54NflAgMBAAGjgdIwgc8wHQYDVR0OBBYEFH2OlnQ68JFL
2XgvB9SDBhQK+N7wMIGfBgNVHSMEgZcwgZSAFH2OlnQ68JFL2XgvB9SDBhQK+N7w
oXGkbzBtMQswCQYDVQQGEwJVUzETMBEGA1UECBMKQ2FsaWZvcm5pYTESMBAGA1UE
BxMJRGFseSBDaXR5MRUwEwYDVQQKEwxFbGVjdHJpY1JhaW4xHjAcBgNVBAMTFXRl
c3QuZWxlY3RyaWNyYWluLmNvbYIJANl4vnVWcooUMAwGA1UdEwQFMAMBAf8wDQYJ
KoZIhvcNAQEFBQADgYEAVDpsT0lKnMG+49Y8owI+G7RoHRt/dp0oc2VPba1GEOt/
T7/i5cqOfVEVMS9LThSKmzWtBJYhePXo8XPHvpeDKqVgOIxauZS6bztr91pszQui
R5mk1sAPWWaKOTCDkrwQ0lKBEZjyLSGSPlB+GEPlxtwwfyisu6Nw8OJ7LjrOLN4=
-----END CERTIFICATE-----
