Certificate:
    Data:
        Version: 3 (0x2)
        Serial Number:
            06:c1:67:cf:eb:f4:8d:35:d6:24:10:18:5e:11:c5:eb
        Signature Algorithm: sha256WithRSAEncryption
        Issuer: C = US, ST = Utah, L = Lehi, O = "DigiCert, Inc.", OU = www.digicert.com, CN = DigiCert Verified Mark Root CA
        Validity
            Not Before: Sep 23 12:12:06 2019 GMT
            Not After : Sep 23 12:12:06 2049 GMT
        Subject: C = US, ST = Utah, L = Lehi, O = "DigiCert, Inc.", OU = www.digicert.com, CN = DigiCert Verified Mark Root CA
        Subject Public Key Info:
            Public Key Algorithm: rsaEncryption
                Public-Key: (4096 bit)
                Modulus:
                    00:da:c2:fb:c8:3b:b7:0b:d3:8a:6d:67:18:0b:c3:
                    f6:30:a8:3b:a5:ba:21:6c:32:f1:ac:af:eb:d9:71:
                    fa:b9:73:78:4a:b9:7d:2e:32:bb:25:cd:af:75:38:
                    50:7a:48:f9:9b:90:6d:a1:2c:4a:ce:71:a5:47:d2:
                    73:27:1b:44:44:dc:03:3a:76:97:e1:c3:ba:94:fa:
                    7d:dc:e9:73:d2:ec:79:4e:f5:90:b9:ec:62:5e:68:
                    e5:f2:6f:47:26:70:ad:86:f7:a5:82:fd:54:6e:07:
                    56:60:8e:a6:28:ab:a3:cf:e3:28:e7:fc:30:7f:3d:
                    cf:bb:92:3c:09:d8:40:c7:e4:11:44:9f:2c:15:ab:
                    8a:c7:d5:af:90:01:b5:43:a7:12:5f:09:f4:19:57:
                    55:4a:5b:e2:4d:b4:ef:ca:28:a5:fe:36:53:eb:b4:
                    7a:e8:4a:02:a2:45:9d:35:f6:85:a9:b4:89:b2:7e:
                    0a:60:ee:3e:85:34:d0:13:47:cb:8f:b2:f5:39:cd:
                    82:72:08:33:b1:2a:fe:0c:aa:59:4c:26:65:15:c0:
                    65:07:17:ad:56:9d:b8:99:78:9b:31:cd:be:47:e7:
                    03:29:8a:45:f8:99:f7:4a:68:89:b4:ca:6d:90:b0:
                    75:51:6b:34:93:d5:b2:15:bc:06:53:85:c2:8f:77:
                    61:27:ca:c4:22:e9:7a:58:a4:c7:29:89:24:68:e7:
                    c1:0d:5d:95:b8:ec:cf:ce:72:ee:e6:04:22:cf:4c:
                    91:0f:10:2f:58:1b:66:82:7c:7c:45:4b:3f:e7:eb:
                    16:51:fb:5a:ef:34:f5:31:70:b6:7e:14:d3:b0:65:
                    19:c7:a9:ca:9e:e5:30:cd:41:ec:28:0b:cf:c0:59:
                    1d:0e:74:aa:ae:d9:68:01:17:8d:27:71:79:ad:9b:
                    94:27:62:19:53:98:17:28:3d:45:9f:47:8d:1b:08:
                    b2:6c:9b:87:d5:d8:1e:21:90:2e:59:08:75:7f:f7:
                    58:e9:b2:fe:e3:86:c1:a4:a5:0a:58:ea:7f:57:58:
                    10:01:5b:a6:46:41:63:38:8d:7c:72:6d:b3:66:6f:
                    7b:b6:d7:1c:7c:ac:49:1a:22:1d:b6:8a:cd:3c:8b:
                    8d:71:79:5f:62:2d:87:9c:3e:ea:7a:9e:96:67:65:
                    b8:8a:48:e1:05:43:75:80:c3:38:b7:4e:d0:01:99:
                    19:27:38:cc:9b:14:92:92:94:94:17:31:f1:ea:10:
                    d7:f0:2a:93:6f:30:c4:55:3b:c3:e5:27:e3:a1:e8:
                    03:7c:97:be:6f:65:a1:45:db:b8:2a:06:16:e6:8c:
                    9d:98:f6:2a:2a:4c:8e:e0:f8:38:38:a8:29:54:42:
                    a5:cf:09
                Exponent: 65537 (0x10001)
        X509v3 extensions:
            X509v3 Subject Key Identifier: 
                EC:6F:22:A4:B3:04:E2:C1:63:87:E6:77:63:EA:46:69:4E:EE:FC:EB
            X509v3 Key Usage: critical
                Digital Signature, Certificate Sign, CRL Sign
            X509v3 Basic Constraints: critical
                CA:TRUE
    Signature Algorithm: sha256WithRSAEncryption
    Signature Value:
        2f:37:d9:82:d5:7a:f5:56:20:d9:eb:de:f5:82:5c:db:cb:3e:
        d9:8f:38:f2:ca:3b:97:07:ba:94:29:91:cb:a0:f8:83:a5:8b:
        61:40:c6:70:bc:24:39:5b:39:3e:a1:88:c2:bb:31:86:ae:ad:
        a8:3d:42:f0:c8:fc:0b:34:e1:c3:4e:6b:ee:2c:a8:a0:b1:41:
        1d:da:2c:4c:b2:a9:e2:c0:e1:67:40:e9:41:48:1d:d3:12:23:
        32:c7:67:29:73:8e:ec:1c:88:8e:f4:eb:1f:37:21:bd:7b:0c:
        c2:8e:72:93:b6:41:50:7b:05:ea:af:db:8d:13:5b:12:b1:1f:
        6d:69:15:9b:25:e3:83:a0:23:e1:dc:00:f0:db:7c:97:b7:3c:
        4c:f0:11:92:8d:70:a4:64:31:66:bf:14:5b:b6:72:44:31:a5:
        37:1f:64:00:6b:6a:b9:ee:44:b7:12:20:d8:a8:75:25:bb:55:
        fc:5c:b7:37:a0:5d:63:38:5a:64:1e:ba:d3:c1:3a:27:1c:79:
        5d:c9:e1:95:64:86:d8:41:9b:bf:38:bc:44:b5:0c:8b:83:4e:
        a4:fd:fe:2a:92:b4:11:8d:f1:e3:86:c7:da:8a:be:36:97:4f:
        c4:9d:72:b3:f9:f0:5a:57:ae:d9:bf:c4:a8:2d:20:ba:6d:c5:
        f5:53:d3:8d:a8:a2:04:1f:6f:67:0d:6a:12:91:4a:fb:34:c4:
        7d:e3:ca:13:bd:e3:8b:74:cc:c1:ff:6c:4a:51:75:4d:fa:c1:
        1d:7f:16:8e:7a:cd:7c:b6:66:fe:1c:cc:cc:20:dc:78:3b:99:
        b0:1a:94:9b:dc:9c:1b:c7:f8:d1:cf:82:e7:10:23:8d:f6:5d:
        7d:75:2b:6f:6f:cf:b1:ee:34:2e:cf:f7:22:a1:c6:7b:3e:31:
        b3:90:0c:c0:cf:3a:1b:52:2d:4a:41:9b:34:4d:1b:8f:b6:05:
        92:59:c8:a1:aa:61:df:92:4c:78:ac:10:66:1e:60:28:b7:31:
        5a:f0:49:ed:94:a9:c0:e2:f5:fd:94:01:65:5b:90:31:3f:60:
        1e:bf:7b:bf:82:ee:8e:94:5a:45:d2:53:b7:73:47:b1:70:16:
        c7:c1:1e:2e:84:aa:02:1b:d9:ef:69:20:d0:31:76:f9:5c:ff:
        71:35:f4:b7:7f:18:91:2d:97:0e:e7:49:dc:e9:ef:57:8c:a7:
        96:78:f2:26:39:e1:f5:76:94:cf:eb:5e:88:12:d5:1e:2b:de:
        9d:a8:3d:ef:5e:7c:6d:17:68:93:1d:d2:fd:60:a2:6e:43:6b:
        f9:21:24:0e:fe:c2:34:41:d3:06:de:ad:df:ed:83:73:74:74:
        9b:12:4b:39:d9:8f:06:01
-----BEGIN CERTIFICATE-----
MIIF3jCCA8agAwIBAgIQBsFnz+v0jTXWJBAYXhHF6zANBgkqhkiG9w0BAQsFADCB
iDELMAkGA1UEBhMCVVMxDTALBgNVBAgTBFV0YWgxDTALBgNVBAcTBExlaGkxFzAV
BgNVBAoTDkRpZ2lDZXJ0LCBJbmMuMRkwFwYDVQQLExB3d3cuZGlnaWNlcnQuY29t
MScwJQYDVQQDEx5EaWdpQ2VydCBWZXJpZmllZCBNYXJrIFJvb3QgQ0EwHhcNMTkw
OTIzMTIxMjA2WhcNNDkwOTIzMTIxMjA2WjCBiDELMAkGA1UEBhMCVVMxDTALBgNV
BAgTBFV0YWgxDTALBgNVBAcTBExlaGkxFzAVBgNVBAoTDkRpZ2lDZXJ0LCBJbmMu
MRkwFwYDVQQLExB3d3cuZGlnaWNlcnQuY29tMScwJQYDVQQDEx5EaWdpQ2VydCBW
ZXJpZmllZCBNYXJrIFJvb3QgQ0EwggIiMA0GCSqGSIb3DQEBAQUAA4ICDwAwggIK
AoICAQDawvvIO7cL04ptZxgLw/YwqDuluiFsMvGsr+vZcfq5c3hKuX0uMrslza91
OFB6SPmbkG2hLErOcaVH0nMnG0RE3AM6dpfhw7qU+n3c6XPS7HlO9ZC57GJeaOXy
b0cmcK2G96WC/VRuB1ZgjqYoq6PP4yjn/DB/Pc+7kjwJ2EDH5BFEnywVq4rH1a+Q
AbVDpxJfCfQZV1VKW+JNtO/KKKX+NlPrtHroSgKiRZ019oWptImyfgpg7j6FNNAT
R8uPsvU5zYJyCDOxKv4MqllMJmUVwGUHF61WnbiZeJsxzb5H5wMpikX4mfdKaIm0
ym2QsHVRazST1bIVvAZThcKPd2EnysQi6XpYpMcpiSRo58ENXZW47M/Ocu7mBCLP
TJEPEC9YG2aCfHxFSz/n6xZR+1rvNPUxcLZ+FNOwZRnHqcqe5TDNQewoC8/AWR0O
dKqu2WgBF40ncXmtm5QnYhlTmBcoPUWfR40bCLJsm4fV2B4hkC5ZCHV/91jpsv7j
hsGkpQpY6n9XWBABW6ZGQWM4jXxybbNmb3u21xx8rEkaIh22is08i41xeV9iLYec
Pup6npZnZbiKSOEFQ3WAwzi3TtABmRknOMybFJKSlJQXMfHqENfwKpNvMMRVO8Pl
J+Oh6AN8l75vZaFF27gqBhbmjJ2Y9ioqTI7g+Dg4qClUQqXPCQIDAQABo0IwQDAd
BgNVHQ4EFgQU7G8ipLME4sFjh+Z3Y+pGaU7u/OswDgYDVR0PAQH/BAQDAgGGMA8G
A1UdEwEB/wQFMAMBAf8wDQYJKoZIhvcNAQELBQADggIBAC832YLVevVWINnr3vWC
XNvLPtmPOPLKO5cHupQpkcug+IOli2FAxnC8JDlbOT6hiMK7MYaurag9QvDI/As0
4cNOa+4sqKCxQR3aLEyyqeLA4WdA6UFIHdMSIzLHZylzjuwciI706x83Ib17DMKO
cpO2QVB7Beqv240TWxKxH21pFZsl44OgI+HcAPDbfJe3PEzwEZKNcKRkMWa/FFu2
ckQxpTcfZABrarnuRLcSINiodSW7VfxctzegXWM4WmQeutPBOicceV3J4ZVkhthB
m784vES1DIuDTqT9/iqStBGN8eOGx9qKvjaXT8SdcrP58FpXrtm/xKgtILptxfVT
042oogQfb2cNahKRSvs0xH3jyhO944t0zMH/bEpRdU36wR1/Fo56zXy2Zv4czMwg
3Hg7mbAalJvcnBvH+NHPgucQI432XX11K29vz7HuNC7P9yKhxns+MbOQDMDPOhtS
LUpBmzRNG4+2BZJZyKGqYd+STHisEGYeYCi3MVrwSe2UqcDi9f2UAWVbkDE/YB6/
e7+C7o6UWkXSU7dzR7FwFsfBHi6EqgIb2e9pINAxdvlc/3E19Ld/GJEtlw7nSdzp
71eMp5Z48iY54fV2lM/rXogS1R4r3p2oPe9efG0XaJMd0v1gom5Da/khJA7+wjRB
0wberd/tg3N0dJsSSznZjwYB
-----END CERTIFICATE-----
