Certificate:
    Data:
        Version: 3 (0x2)
        Serial Number:
            0c:5b:6f:7e:eb:b3:f1:c2:ac:dd:a1:3a:98:9d:bd:82
        Signature Algorithm: sha256WithRSAEncryption
        Issuer: C = US, ST = Utah, L = Lehi, O = "DigiCert, Inc.", OU = www.digicert.com, CN = DigiCert Verified Mark Root CA
        Validity
            Not Before: Jul  1 00:00:00 2021 GMT
            Not After : Jun 30 23:59:59 2036 GMT
        Subject: C = US, O = "DigiCert, Inc.", CN = DigiCert Verified Mark RSA4096 SHA256 2021 CA1
        Subject Public Key Info:
            Public Key Algorithm: rsaEncryption
                Public-Key: (4096 bit)
                Modulus:
                    00:dc:2f:64:09:9c:30:5a:6f:fa:73:11:fd:d8:a2:
                    2e:a6:01:79:8a:0f:7e:0c:3a:0a:8c:a2:e1:8b:4d:
                    3e:02:bd:64:ae:81:38:bf:c6:33:cf:6c:54:df:db:
                    32:46:e0:f8:31:df:86:1a:20:66:33:be:74:d2:82:
                    9b:1c:a4:d7:fe:b2:cb:62:00:f0:eb:10:fc:2e:5a:
                    4f:d9:42:6a:38:13:8e:dc:ae:73:95:84:74:c7:96:
                    d3:9c:f1:74:62:a7:55:30:08:fc:ce:07:68:70:9a:
                    76:70:15:33:cf:ea:44:ba:86:9f:1a:a3:d3:f9:a9:
                    ae:34:52:9d:37:b2:1d:50:86:1c:6f:85:54:d7:7f:
                    a0:ec:c5:28:cc:56:90:b3:d8:12:02:6b:9e:a6:5b:
                    b9:4f:78:47:f9:06:0a:aa:75:a7:94:a0:4b:d8:77:
                    0e:26:c3:ed:fb:57:9b:ee:81:41:7c:a4:7d:65:ba:
                    cf:09:7f:de:c3:60:f0:82:f2:e7:f5:e1:1c:30:f0:
                    d5:e1:39:e2:cb:c9:4c:a5:a8:ff:6d:d1:64:b9:9e:
                    5c:0f:8e:2a:1b:24:09:bf:55:d8:60:ac:ec:db:02:
                    e5:32:53:9b:89:d9:b9:93:e1:bb:69:e9:a1:cd:be:
                    63:9e:b0:7b:e1:11:2f:7a:7d:67:63:b2:ed:a3:75:
                    54:13:6b:d7:bc:ec:f2:be:57:35:22:49:d0:c3:34:
                    7c:2d:63:f9:9a:50:6d:32:f4:06:13:85:4f:4f:68:
                    a1:24:1a:27:e6:17:5f:bc:f1:dc:cd:f8:87:93:b3:
                    2e:3a:f6:29:10:e6:75:84:b3:b9:44:89:6f:28:98:
                    ed:9a:a8:37:18:d8:16:11:7d:c5:03:68:fe:04:5f:
                    94:5d:57:02:e5:21:fd:d6:82:c5:55:7a:38:19:d1:
                    a7:65:a8:1f:a2:9a:2a:76:0c:71:47:0f:bc:67:08:
                    0f:9a:90:37:d1:00:b8:1d:72:43:6d:c4:68:9c:33:
                    15:82:ba:db:66:b9:01:ac:7f:bf:b7:39:ec:4c:d2:
                    ac:8c:a3:71:7e:ca:fa:fe:1e:bf:33:ad:5f:45:8c:
                    99:fc:47:57:2b:00:1b:e8:b9:7f:bd:9b:6e:21:8f:
                    64:25:23:73:86:01:74:a3:de:ba:cb:31:76:59:98:
                    57:80:6f:58:93:3e:aa:5f:90:30:09:6f:9b:69:31:
                    3a:96:59:b1:1a:b3:62:fb:e9:aa:33:b4:5b:7d:9f:
                    89:19:41:f7:37:0c:3c:78:2f:81:f1:52:41:7e:18:
                    1b:22:fe:9a:a9:e7:43:a9:da:d6:88:9e:a9:d3:92:
                    5e:9c:66:dd:49:15:a5:c9:c8:8b:ff:cd:9a:d7:81:
                    3c:0d:d5
                Exponent: 65537 (0x10001)
        X509v3 extensions:
            X509v3 Subject Key Identifier: 
                BE:9F:BD:8D:57:6D:95:B5:AD:63:C3:97:4E:AB:A8:84:5D:3A:07:F5
            X509v3 Authority Key Identifier: 
                EC:6F:22:A4:B3:04:E2:C1:63:87:E6:77:63:EA:46:69:4E:EE:FC:EB
            X509v3 Key Usage: critical
                Digital Signature, Certificate Sign, CRL Sign
            X509v3 Extended Key Usage: 
                Brand Indicator for Message Identification
            X509v3 Basic Constraints: critical
                CA:TRUE, pathlen:0
            Authority Information Access: 
                OCSP - URI:http://ocsp.digicert.com
                CA Issuers - URI:http://cacerts.digicert.com/DigiCertVerifiedMarkRootCA.crt
            X509v3 CRL Distribution Points: 
                Full Name:
                  URI:http://crl3.digicert.com/DigiCertVerifiedMarkRootCA.crl
            X509v3 Certificate Policies: 
                Policy: 2.16.840.1.114412.0.2.5
                  CPS: http://www.digicert.com/CPS
                Policy: 1.3.6.1.4.1.53087.1.1
    Signature Algorithm: sha256WithRSAEncryption
    Signature Value:
        aa:83:e1:01:7a:70:7a:df:9e:43:e2:83:77:59:48:fb:e3:5b:
        bc:6b:f3:1c:51:b0:16:02:1d:a3:bc:1a:bd:6d:e5:01:a5:ea:
        2b:b4:8d:33:87:0a:36:8d:74:0b:20:38:ed:94:97:6d:37:07:
        19:5a:69:95:ea:8b:9c:e9:ca:77:66:a1:a7:93:41:d1:9c:3d:
        47:34:04:82:43:7d:e1:4f:0e:54:6a:a1:b4:b6:e1:14:3a:af:
        15:28:d9:cd:99:50:64:5c:d1:9b:eb:a3:d5:c3:a4:45:8d:01:
        f8:fd:62:83:06:a8:a0:96:18:88:db:77:f9:72:90:da:95:f4:
        97:5f:84:55:25:9d:d7:2c:63:d5:48:c9:aa:d9:33:87:99:05:
        85:fa:1d:4d:47:aa:55:c8:37:57:26:8a:2e:50:af:16:3a:42:
        24:b1:8c:a3:97:13:1a:b5:55:f4:41:ab:17:f2:d7:a9:1e:2c:
        d6:04:c6:42:d0:73:20:dd:0d:a0:af:48:78:1c:a0:9d:b9:cb:
        a6:85:bb:ae:46:74:b0:a5:88:46:f8:e5:3e:40:02:13:28:ad:
        bd:16:27:2e:18:cc:75:8b:e0:a0:d4:fc:90:10:87:66:ab:8d:
        4b:83:32:de:9d:d6:91:b5:ec:21:52:e1:5f:9b:81:58:1b:f6:
        f7:b1:29:25:83:eb:de:b3:0f:02:6c:31:37:81:74:11:ed:8f:
        db:d4:cd:63:89:9e:af:9e:59:cf:fe:ae:f6:65:15:01:e4:0a:
        4d:90:0f:e1:f5:f9:28:24:d4:7c:f9:1e:36:04:37:c9:ee:8f:
        50:bb:d1:16:9c:c7:ac:84:d0:76:e8:42:14:a4:cd:b4:15:d6:
        1f:3a:1b:56:23:a2:10:43:d9:26:9c:bc:24:eb:2c:c3:da:7a:
        25:87:0b:92:12:9d:f6:84:af:57:e6:af:e3:3d:f5:ec:b6:33:
        ac:40:29:14:91:1a:06:90:60:64:48:44:54:db:18:da:5a:13:
        98:60:96:eb:9a:0e:1c:d5:0b:6a:72:be:b9:99:cf:45:ca:a6:
        1c:91:9d:0b:74:b3:23:77:c4:8f:42:7f:e3:40:f2:eb:43:ee:
        4f:61:c7:c8:fc:61:19:21:9e:1d:a9:9e:f7:7a:75:91:c4:c2:
        aa:d5:df:ef:f3:dd:72:64:14:2b:9a:c6:be:7f:f1:f5:b8:70:
        07:98:67:cc:cf:07:00:e9:65:a5:5d:96:27:8c:90:f4:a8:f2:
        e9:53:3c:81:c0:5a:06:77:d6:08:cb:4f:c8:b1:a0:44:cf:22:
        36:02:c5:fd:11:a9:77:c2:b8:df:95:93:b2:33:31:3b:cd:82:
        95:e5:81:2d:44:30:c1:58
-----BEGIN CERTIFICATE-----
MIIHCzCCBPOgAwIBAgIQDFtvfuuz8cKs3aE6mJ29gjANBgkqhkiG9w0BAQsFADCB
iDELMAkGA1UEBhMCVVMxDTALBgNVBAgTBFV0YWgxDTALBgNVBAcTBExlaGkxFzAV
BgNVBAoTDkRpZ2lDZXJ0LCBJbmMuMRkwFwYDVQQLExB3d3cuZGlnaWNlcnQuY29t
MScwJQYDVQQDEx5EaWdpQ2VydCBWZXJpZmllZCBNYXJrIFJvb3QgQ0EwHhcNMjEw
NzAxMDAwMDAwWhcNMzYwNjMwMjM1OTU5WjBfMQswCQYDVQQGEwJVUzEXMBUGA1UE
ChMORGlnaUNlcnQsIEluYy4xNzA1BgNVBAMTLkRpZ2lDZXJ0IFZlcmlmaWVkIE1h
cmsgUlNBNDA5NiBTSEEyNTYgMjAyMSBDQTEwggIiMA0GCSqGSIb3DQEBAQUAA4IC
DwAwggIKAoICAQDcL2QJnDBab/pzEf3Yoi6mAXmKD34MOgqMouGLTT4CvWSugTi/
xjPPbFTf2zJG4Pgx34YaIGYzvnTSgpscpNf+sstiAPDrEPwuWk/ZQmo4E47crnOV
hHTHltOc8XRip1UwCPzOB2hwmnZwFTPP6kS6hp8ao9P5qa40Up03sh1QhhxvhVTX
f6DsxSjMVpCz2BICa56mW7lPeEf5BgqqdaeUoEvYdw4mw+37V5vugUF8pH1lus8J
f97DYPCC8uf14Rww8NXhOeLLyUylqP9t0WS5nlwPjiobJAm/VdhgrOzbAuUyU5uJ
2bmT4btp6aHNvmOesHvhES96fWdjsu2jdVQTa9e87PK+VzUiSdDDNHwtY/maUG0y
9AYThU9PaKEkGifmF1+88dzN+IeTsy469ikQ5nWEs7lEiW8omO2aqDcY2BYRfcUD
aP4EX5RdVwLlIf3WgsVVejgZ0adlqB+imip2DHFHD7xnCA+akDfRALgdckNtxGic
MxWCuttmuQGsf7+3OexM0qyMo3F+yvr+Hr8zrV9FjJn8R1crABvouX+9m24hj2Ql
I3OGAXSj3rrLMXZZmFeAb1iTPqpfkDAJb5tpMTqWWbEas2L76aoztFt9n4kZQfc3
DDx4L4HxUkF+GBsi/pqp50Op2taInqnTkl6cZt1JFaXJyIv/zZrXgTwN1QIDAQAB
o4IBlzCCAZMwHQYDVR0OBBYEFL6fvY1XbZW1rWPDl06rqIRdOgf1MB8GA1UdIwQY
MBaAFOxvIqSzBOLBY4fmd2PqRmlO7vzrMA4GA1UdDwEB/wQEAwIBhjATBgNVHSUE
DDAKBggrBgEFBQcDHzASBgNVHRMBAf8ECDAGAQH/AgEAMHwGCCsGAQUFBwEBBHAw
bjAkBggrBgEFBQcwAYYYaHR0cDovL29jc3AuZGlnaWNlcnQuY29tMEYGCCsGAQUF
BzAChjpodHRwOi8vY2FjZXJ0cy5kaWdpY2VydC5jb20vRGlnaUNlcnRWZXJpZmll
ZE1hcmtSb290Q0EuY3J0MEgGA1UdHwRBMD8wPaA7oDmGN2h0dHA6Ly9jcmwzLmRp
Z2ljZXJ0LmNvbS9EaWdpQ2VydFZlcmlmaWVkTWFya1Jvb3RDQS5jcmwwUAYDVR0g
BEkwRzA3BgpghkgBhv1sAAIFMCkwJwYIKwYBBQUHAgEWG2h0dHA6Ly93d3cuZGln
aWNlcnQuY29tL0NQUzAMBgorBgEEAYOeXwEBMA0GCSqGSIb3DQEBCwUAA4ICAQCq
g+EBenB6355D4oN3WUj741u8a/McUbAWAh2jvBq9beUBpeortI0zhwo2jXQLIDjt
lJdtNwcZWmmV6ouc6cp3ZqGnk0HRnD1HNASCQ33hTw5UaqG0tuEUOq8VKNnNmVBk
XNGb66PVw6RFjQH4/WKDBqiglhiI23f5cpDalfSXX4RVJZ3XLGPVSMmq2TOHmQWF
+h1NR6pVyDdXJoouUK8WOkIksYyjlxMatVX0QasX8tepHizWBMZC0HMg3Q2gr0h4
HKCducumhbuuRnSwpYhG+OU+QAITKK29FicuGMx1i+Cg1PyQEIdmq41LgzLendaR
tewhUuFfm4FYG/b3sSklg+vesw8CbDE3gXQR7Y/b1M1jiZ6vnlnP/q72ZRUB5ApN
kA/h9fkoJNR8+R42BDfJ7o9Qu9EWnMeshNB26EIUpM20FdYfOhtWI6IQQ9kmnLwk
6yzD2nolhwuSEp32hK9X5q/jPfXstjOsQCkUkRoGkGBkSERU2xjaWhOYYJbrmg4c
1Qtqcr65mc9FyqYckZ0LdLMjd8SPQn/jQPLrQ+5PYcfI/GEZIZ4dqZ73enWRxMKq
1d/v891yZBQrmsa+f/H1uHAHmGfMzwcA6WWlXZYnjJD0qPLpUzyBwFoGd9YIy0/I
saBEzyI2AsX9Eal3wrjflZOyMzE7zYKV5YEtRDDBWA==
-----END CERTIFICATE-----
