Certificate:
    Data:
        Version: 3 (0x2)
        Serial Number:
            1e:f7:df:5c:bf:c4:53:ed:0a:c4:2f:35:f2:e6:5e:2b
        Signature Algorithm: sha256WithRSAEncryption
        Issuer: C = US, O = SSL Corporation, CN = SSL.com VMC RSA Root CA 2024
        Validity
            Not Before: Mar 26 17:03:37 2024 GMT
            Not After : Mar 24 17:03:36 2034 GMT
        Subject: C = US, O = SSL Corporation, CN = SSL.com VMC Issuing RSA CA 1
        Subject Public Key Info:
            Public Key Algorithm: rsaEncryption
                Public-Key: (3072 bit)
                Modulus:
                    00:df:ff:ec:a1:dc:84:fe:0e:cc:a0:35:38:44:c8:
                    fb:7e:21:5e:87:08:69:0b:95:52:fa:97:50:fa:2d:
                    93:8e:1b:81:d0:47:b8:68:97:4f:d8:fd:57:16:e7:
                    f2:18:16:b6:ab:12:6c:3d:1c:c2:53:1f:ee:31:cb:
                    15:91:c8:f9:2c:b2:c0:f2:17:94:e0:3f:12:14:8e:
                    da:84:98:61:57:76:52:d7:00:bd:94:5f:cc:69:e6:
                    59:5f:17:8a:5f:46:21:e1:ab:d9:65:a7:1f:ed:af:
                    68:76:d9:89:d8:3f:39:a5:ea:26:90:fe:d3:19:41:
                    04:12:b4:44:04:ab:63:eb:a5:82:e0:89:b4:2a:05:
                    b0:5f:7b:52:15:0e:a1:ac:b6:82:0a:fd:8d:29:2f:
                    cd:85:5a:05:34:a9:de:c4:ab:da:bf:1b:05:0f:7c:
                    43:ac:22:ea:90:41:16:02:ec:75:08:f3:a5:bd:2b:
                    0a:6c:af:bc:13:76:a4:53:f2:4e:ae:26:f0:fa:be:
                    16:7f:39:dd:f4:4d:1e:64:41:92:35:e8:18:f7:13:
                    be:ed:08:b7:b0:53:3a:8d:62:aa:c3:70:12:ac:7d:
                    9c:7b:4b:e6:b2:db:b5:ca:83:0e:9f:f7:6e:1f:32:
                    c2:77:22:e5:88:c2:12:bb:41:a5:6a:49:46:1c:e6:
                    eb:5f:8e:52:0e:dc:2e:9e:36:fa:e6:2e:81:e1:68:
                    6f:6c:2d:71:b9:04:83:53:79:94:ef:b2:9b:9a:fd:
                    ab:60:1f:d0:39:e0:6c:04:1c:7c:09:82:c1:b8:0c:
                    2d:55:a9:3d:b3:6b:c2:e3:ad:80:7b:3a:01:26:8a:
                    90:fc:a8:ab:27:2d:f1:1e:82:6f:57:ca:39:bc:1e:
                    48:a8:01:14:72:10:76:04:a0:00:71:df:62:ab:37:
                    22:a2:4b:d4:52:d7:6f:95:ec:bd:94:84:5f:19:77:
                    0c:f2:9d:d5:43:32:0d:02:4b:b9:b4:93:bb:05:5e:
                    11:51:3a:02:e2:75:be:d5:df:79
                Exponent: 65537 (0x10001)
        X509v3 extensions:
            X509v3 Basic Constraints: critical
                CA:TRUE, pathlen:0
            X509v3 Authority Key Identifier: 
                C1:35:A2:F4:59:D9:07:76:97:FD:CA:E8:6B:77:D6:26:AE:7A:5A:FB
            Authority Information Access: 
                CA Issuers - URI:http://cert.ssl.com/SSL.com-VMC-Root-2024-RSA.cer
            X509v3 Certificate Policies: 
                Policy: X509v3 Any Policy
            X509v3 Extended Key Usage: 
                Brand Indicator for Message Identification
            X509v3 CRL Distribution Points: 
                Full Name:
                  URI:http://crls.ssl.com/SSL.com-VMC-Root-2024-RSA.crl
            X509v3 Subject Key Identifier: 
                B9:2C:B9:90:28:C0:CA:E2:B8:10:56:6E:E4:70:68:17:9D:54:73:BB
            X509v3 Key Usage: critical
                Digital Signature, Certificate Sign, CRL Sign
    Signature Algorithm: sha256WithRSAEncryption
    Signature Value:
        22:6e:99:d3:54:c6:71:77:ab:af:e2:cf:d2:09:cb:10:6b:c5:
        68:34:95:86:70:f7:24:1a:87:6d:29:42:8b:ed:28:d6:a6:a0:
        4b:86:63:5e:42:a5:33:49:c5:da:f1:7e:c4:84:02:06:e2:8b:
        2d:37:c7:d3:ac:bb:83:84:d6:53:34:42:d5:b4:c5:40:d4:f1:
        6c:a8:03:a5:f2:97:ee:bb:ef:06:d6:d9:c6:8b:a7:0e:b1:05:
        bc:3b:06:0c:1b:40:0f:79:d4:f4:f3:7e:76:1a:3f:31:d7:03:
        5a:ce:d1:f7:34:b2:c2:f0:8e:a0:db:47:75:82:33:10:1b:3c:
        9b:37:55:f2:05:1a:15:58:02:66:06:15:e7:9f:ac:fa:ff:2c:
        d7:76:1f:9e:2e:a3:40:fd:bb:86:50:94:80:10:83:c1:68:61:
        f6:d7:10:3b:32:fd:b7:de:bf:9f:43:f9:7a:cb:45:67:88:cf:
        ae:24:6a:c2:b4:3b:9f:4b:d7:33:13:1c:3d:9e:b6:52:25:77:
        7c:a2:3f:b4:fe:17:89:3c:a5:26:7e:0b:19:b5:38:4c:e8:d8:
        e7:30:25:42:ae:1b:20:33:e6:8b:fc:2f:27:36:da:9a:22:19:
        eb:a3:b8:ed:06:f5:fe:c9:0c:00:26:d5:c6:33:e9:59:67:6e:
        de:2d:f8:00:93:3c:38:df:55:34:cc:6f:27:46:e7:d9:17:6e:
        84:e8:22:1b:7f:3f:e8:9e:62:d6:2e:26:7e:75:11:bc:96:18:
        69:42:00:ec:07:ff:31:8d:f8:ef:59:a0:77:b0:54:63:92:4e:
        67:84:c6:54:1f:1f:69:cb:e6:61:c9:11:8b:6f:15:8a:34:58:
        bb:78:2d:07:6f:94:10:ff:c3:d9:1d:dc:84:ab:5c:f8:4e:84:
        6d:af:69:f5:a7:e3:d1:00:6d:c9:a4:68:b7:13:b2:8f:19:9d:
        eb:4a:22:70:aa:23:b6:97:d4:a9:35:2f:4d:62:60:b8:77:fc:
        73:62:52:97:e9:fd:2c:c9:17:29:b8:0b:9e:3f:96:29:8d:11:
        ee:6f:fe:32:a5:73:9b:6a:21:1b:82:2a:ff:4a:61:37:f0:3d:
        82:6b:12:70:0d:3d:82:a2:dc:72:16:6f:57:80:34:d6:4d:d4:
        73:18:f2:02:93:da:28:9f:c6:21:f0:01:7c:d0:47:da:a0:8f:
        9f:25:1d:28:d1:bc:bd:11:64:1d:48:20:5a:14:d5:18:9a:ff:
        9a:2e:a9:b9:79:5a:93:ce:c3:ab:15:70:b8:07:b0:15:ab:ad:
        52:b8:5f:b7:83:9d:24:f0:af:58:0d:a9:ab:76:a7:d1:3d:33:
        c0:e4:cd:52:20:23:10:a7
-----BEGIN CERTIFICATE-----
MIIFyzCCA7OgAwIBAgIQHvffXL/EU+0KxC818uZeKzANBgkqhkiG9w0BAQsFADBO
MQswCQYDVQQGEwJVUzEYMBYGA1UECgwPU1NMIENvcnBvcmF0aW9uMSUwIwYDVQQD
DBxTU0wuY29tIFZNQyBSU0EgUm9vdCBDQSAyMDI0MB4XDTI0MDMyNjE3MDMzN1oX
DTM0MDMyNDE3MDMzNlowTjELMAkGA1UEBhMCVVMxGDAWBgNVBAoMD1NTTCBDb3Jw
b3JhdGlvbjElMCMGA1UEAwwcU1NMLmNvbSBWTUMgSXNzdWluZyBSU0EgQ0EgMTCC
AaIwDQYJKoZIhvcNAQEBBQADggGPADCCAYoCggGBAN//7KHchP4OzKA1OETI+34h
XocIaQuVUvqXUPotk44bgdBHuGiXT9j9Vxbn8hgWtqsSbD0cwlMf7jHLFZHI+Syy
wPIXlOA/EhSO2oSYYVd2UtcAvZRfzGnmWV8Xil9GIeGr2WWnH+2vaHbZidg/OaXq
JpD+0xlBBBK0RASrY+ulguCJtCoFsF97UhUOoay2ggr9jSkvzYVaBTSp3sSr2r8b
BQ98Q6wi6pBBFgLsdQjzpb0rCmyvvBN2pFPyTq4m8Pq+Fn853fRNHmRBkjXoGPcT
vu0It7BTOo1iqsNwEqx9nHtL5rLbtcqDDp/3bh8ywnci5YjCErtBpWpJRhzm61+O
Ug7cLp42+uYugeFob2wtcbkEg1N5lO+ym5r9q2Af0DngbAQcfAmCwbgMLVWpPbNr
wuOtgHs6ASaKkPyoqyct8R6Cb1fKObweSKgBFHIQdgSgAHHfYqs3IqJL1FLXb5Xs
vZSEXxl3DPKd1UMyDQJLubSTuwVeEVE6AuJ1vtXfeQIDAQABo4IBIzCCAR8wEgYD
VR0TAQH/BAgwBgEB/wIBADAfBgNVHSMEGDAWgBTBNaL0WdkHdpf9yuhrd9Ymrnpa
+zBNBggrBgEFBQcBAQRBMD8wPQYIKwYBBQUHMAKGMWh0dHA6Ly9jZXJ0LnNzbC5j
b20vU1NMLmNvbS1WTUMtUm9vdC0yMDI0LVJTQS5jZXIwEQYDVR0gBAowCDAGBgRV
HSAAMBMGA1UdJQQMMAoGCCsGAQUFBwMfMEIGA1UdHwQ7MDkwN6A1oDOGMWh0dHA6
Ly9jcmxzLnNzbC5jb20vU1NMLmNvbS1WTUMtUm9vdC0yMDI0LVJTQS5jcmwwHQYD
VR0OBBYEFLksuZAowMriuBBWbuRwaBedVHO7MA4GA1UdDwEB/wQEAwIBhjANBgkq
hkiG9w0BAQsFAAOCAgEAIm6Z01TGcXerr+LP0gnLEGvFaDSVhnD3JBqHbSlCi+0o
1qagS4ZjXkKlM0nF2vF+xIQCBuKLLTfH06y7g4TWUzRC1bTFQNTxbKgDpfKX7rvv
BtbZxounDrEFvDsGDBtAD3nU9PN+dho/MdcDWs7R9zSywvCOoNtHdYIzEBs8mzdV
8gUaFVgCZgYV55+s+v8s13Yfni6jQP27hlCUgBCDwWhh9tcQOzL9t96/n0P5estF
Z4jPriRqwrQ7n0vXMxMcPZ62UiV3fKI/tP4XiTylJn4LGbU4TOjY5zAlQq4bIDPm
i/wvJzbamiIZ66O47Qb1/skMACbVxjPpWWdu3i34AJM8ON9VNMxvJ0bn2RduhOgi
G38/6J5i1i4mfnURvJYYaUIA7Af/MY3471mgd7BUY5JOZ4TGVB8facvmYckRi28V
ijRYu3gtB2+UEP/D2R3chKtc+E6Eba9p9afj0QBtyaRotxOyjxmd60oicKojtpfU
qTUvTWJguHf8c2JSl+n9LMkXKbgLnj+WKY0R7m/+MqVzm2ohG4Iq/0phN/A9gmsS
cA09gqLcchZvV4A01k3UcxjyApPaKJ/GIfABfNBH2qCPnyUdKNG8vRFkHUggWhTV
GJr/mi6puXlak87DqxVwuAewFautUrhft4OdJPCvWA2pq3an0T0zwOTNUiAjEKc=
-----END CERTIFICATE-----
