Certificate:
    Data:
        Version: 3 (0x2)
        Serial Number:
            52:4f:94:06:c9:b4:44:9e:04:d3:84:a2:ac:98:7a:11
        Signature Algorithm: ecdsa-with-SHA384
        Issuer: C = US, O = SSL Corporation, CN = SSL.com VMC ECC Root CA 2024
        Validity
            Not Before: Mar 26 17:04:19 2024 GMT
            Not After : Mar 24 17:04:18 2034 GMT
        Subject: C = US, O = SSL Corporation, CN = SSL.com VMC Issuing ECC CA 1
        Subject Public Key Info:
            Public Key Algorithm: id-ecPublicKey
                Public-Key: (384 bit)
                pub:
                    04:56:e7:be:23:02:bf:ab:9f:1c:7b:02:1f:0b:0f:
                    92:b7:55:d7:37:ee:b0:c4:ac:c9:b5:6d:9a:78:f7:
                    1b:88:b8:21:3b:0e:4d:1f:c6:c5:18:22:cb:0b:6e:
                    33:78:38:28:56:e7:16:83:48:1d:ad:c6:fb:ec:bb:
                    92:54:8b:ba:e9:d1:5f:0a:57:97:20:9f:1c:56:8b:
                    0d:72:08:70:5e:f3:fb:e9:f4:2b:a0:61:04:84:9e:
                    f3:ad:6d:ba:ed:18:eb
                ASN1 OID: secp384r1
                NIST CURVE: P-384
        X509v3 extensions:
            X509v3 Basic Constraints: critical
                CA:TRUE, pathlen:0
            X509v3 Authority Key Identifier: 
                25:F0:C6:2A:E4:DE:22:A6:00:2D:F1:52:B8:27:8D:A0:51:E2:A0:A5
            Authority Information Access: 
                CA Issuers - URI:http://cert.ssl.com/SSL.com-VMC-Root-2024-ECC.cer
            X509v3 Certificate Policies: 
                Policy: X509v3 Any Policy
            X509v3 Extended Key Usage: 
                Brand Indicator for Message Identification
            X509v3 CRL Distribution Points: 
                Full Name:
                  URI:http://crls.ssl.com/SSL.com-VMC-Root-2024-ECC.crl
            X509v3 Subject Key Identifier: 
                03:19:FD:F3:B9:D3:4B:B1:99:2C:86:1B:DF:2D:AC:3F:B5:44:1C:77
            X509v3 Key Usage: critical
                Digital Signature, Certificate Sign, CRL Sign
    Signature Algorithm: ecdsa-with-SHA384
    Signature Value:
        30:66:02:31:00:cf:b5:98:7f:ef:d1:37:a9:fe:1a:fb:25:5c:
        64:c6:26:d1:0a:10:6f:3c:86:c3:65:7b:4d:eb:90:44:42:b2:
        c8:0b:92:5a:f5:19:55:8a:89:8b:41:a2:e8:a7:3c:f0:f9:02:
        31:00:bf:d5:d9:67:bf:d9:9e:04:27:6f:e7:bb:c9:6a:7f:55:
        50:b7:bc:14:0d:07:dc:61:6e:02:fe:21:fe:b2:82:db:80:b8:
        2a:43:64:66:0f:09:0d:2d:d6:0e:ec:f2:ff:15
-----BEGIN CERTIFICATE-----
MIIC/TCCAoKgAwIBAgIQUk+UBsm0RJ4E04SirJh6ETAKBggqhkjOPQQDAzBOMQsw
CQYDVQQGEwJVUzEYMBYGA1UECgwPU1NMIENvcnBvcmF0aW9uMSUwIwYDVQQDDBxT
U0wuY29tIFZNQyBFQ0MgUm9vdCBDQSAyMDI0MB4XDTI0MDMyNjE3MDQxOVoXDTM0
MDMyNDE3MDQxOFowTjELMAkGA1UEBhMCVVMxGDAWBgNVBAoMD1NTTCBDb3Jwb3Jh
dGlvbjElMCMGA1UEAwwcU1NMLmNvbSBWTUMgSXNzdWluZyBFQ0MgQ0EgMTB2MBAG
ByqGSM49AgEGBSuBBAAiA2IABFbnviMCv6ufHHsCHwsPkrdV1zfusMSsybVtmnj3
G4i4ITsOTR/GxRgiywtuM3g4KFbnFoNIHa3G++y7klSLuunRXwpXlyCfHFaLDXII
cF7z++n0K6BhBISe861tuu0Y66OCASMwggEfMBIGA1UdEwEB/wQIMAYBAf8CAQAw
HwYDVR0jBBgwFoAUJfDGKuTeIqYALfFSuCeNoFHioKUwTQYIKwYBBQUHAQEEQTA/
MD0GCCsGAQUFBzAChjFodHRwOi8vY2VydC5zc2wuY29tL1NTTC5jb20tVk1DLVJv
b3QtMjAyNC1FQ0MuY2VyMBEGA1UdIAQKMAgwBgYEVR0gADATBgNVHSUEDDAKBggr
BgEFBQcDHzBCBgNVHR8EOzA5MDegNaAzhjFodHRwOi8vY3Jscy5zc2wuY29tL1NT
TC5jb20tVk1DLVJvb3QtMjAyNC1FQ0MuY3JsMB0GA1UdDgQWBBQDGf3zudNLsZks
hhvfLaw/tUQcdzAOBgNVHQ8BAf8EBAMCAYYwCgYIKoZIzj0EAwMDaQAwZgIxAM+1
mH/v0Tep/hr7JVxkxibRChBvPIbDZXtN65BEQrLIC5Ja9RlViomLQaLopzzw+QIx
AL/V2We/2Z4EJ2/nu8lqf1VQt7wUDQfcYW4C/iH+soLbgLgqQ2RmDwkNLdYO7PL/
FQ==
-----END CERTIFICATE-----
