Certificate:
    Data:
        Version: 3 (0x2)
        Serial Number:
            69:9d:8f:d7:58:c2:c3:9c:1e:53:d1:aa:14:76:d1:e6
        Signature Algorithm: sha512WithRSAEncryption
        Issuer: C = US, O = "Entrust, Inc.", CN = Entrust Verified Mark Root Certification Authority - VMCR1
        Validity
            Not Before: May  7 19:23:23 2021 GMT
            Not After : Dec 29 23:59:00 2040 GMT
        Subject: C = US, O = "Entrust, Inc.", CN = Entrust Verified Mark CA - VMC2
        Subject Public Key Info:
            Public Key Algorithm: rsaEncryption
                Public-Key: (4096 bit)
                Modulus:
                    00:e8:9f:f3:38:ff:bc:26:7c:d3:0c:26:68:e3:53:
                    03:0c:93:ea:94:54:d1:72:35:46:e1:b0:d0:3c:88:
                    ba:46:a5:c8:3f:ad:14:18:1b:e7:b5:1c:1c:5c:76:
                    51:65:52:d0:15:7a:5f:63:a0:7e:f5:59:b1:f9:4a:
                    85:5d:1b:de:83:60:9c:40:4f:d0:2c:31:aa:64:c8:
                    86:75:ce:ba:a2:e5:5e:12:f6:fe:b9:ff:f4:29:ca:
                    2f:4e:ea:79:45:5b:cc:d2:40:ab:3f:b8:aa:3d:6c:
                    b8:81:85:b7:7a:1e:45:41:09:5e:ef:5d:c0:92:07:
                    86:17:7e:c6:7e:96:5e:6d:a3:8c:4a:08:30:4f:ac:
                    ad:97:0a:d6:9f:d7:0e:c9:40:86:57:ac:82:8e:f1:
                    9a:56:c9:61:1f:0b:8e:1b:c0:62:97:29:82:cf:08:
                    39:40:54:cd:51:54:1b:ed:12:2d:06:1f:d8:c6:4a:
                    6a:81:96:68:fe:a2:a0:9a:a0:bc:21:1f:eb:98:dc:
                    b2:16:7e:13:46:fd:07:68:1d:87:bc:5d:04:7d:69:
                    99:94:9c:51:16:0c:66:7c:0b:64:b3:84:d0:62:3b:
                    9c:d6:e3:3d:d5:27:01:18:e0:4a:9b:d7:87:41:86:
                    c5:fc:04:fb:2b:dc:d2:ce:6f:6b:1b:84:68:a9:35:
                    2b:20:d0:72:f4:b5:7b:18:43:76:a9:86:b3:d0:d9:
                    f8:2b:0d:30:60:96:da:80:ab:c5:89:a9:fd:c2:30:
                    91:38:f5:f1:4b:fa:17:6e:70:3c:0f:e3:35:4b:50:
                    d1:bd:96:63:7e:59:a7:89:82:40:c7:d2:95:83:d7:
                    cb:5c:bd:2e:1d:35:2f:be:5d:18:c7:4c:3c:91:6a:
                    3b:28:b0:e3:87:86:f8:ce:5c:a7:dd:42:f3:f7:03:
                    6e:1c:e9:72:51:e2:68:6f:3a:19:94:7c:73:a1:52:
                    5e:aa:84:aa:2d:8c:74:0b:3e:d0:15:22:c1:b8:ff:
                    90:51:cc:dd:eb:d8:4a:93:2e:fc:0c:95:5b:f2:de:
                    19:1f:5f:ed:69:42:f6:a7:34:ce:e4:50:d2:16:ad:
                    19:4e:ea:89:69:65:3c:9e:29:69:b9:51:aa:e6:99:
                    3a:7b:eb:8e:02:7e:fb:3c:42:f0:ea:0b:f4:5d:fd:
                    e9:80:7e:ad:2d:fa:b9:a3:d7:02:fc:aa:05:90:c7:
                    ae:48:7b:20:69:db:d9:db:ef:8b:61:29:a4:c7:9d:
                    7d:c2:b1:8e:8c:68:20:97:b5:e6:ad:d0:c8:ab:e4:
                    15:e4:a3:f5:b5:ab:5c:35:d2:34:2a:f3:fa:ef:8d:
                    fd:8e:41:62:96:a8:d7:05:19:68:a7:d7:86:97:b7:
                    9b:94:9d
                Exponent: 65537 (0x10001)
        X509v3 extensions:
            X509v3 Basic Constraints: critical
                CA:TRUE, pathlen:0
            X509v3 Subject Key Identifier: 
                EF:BC:3C:B4:AF:3A:D0:45:5E:76:54:DF:C7:64:78:E9:2D:1D:74:3F
            X509v3 Authority Key Identifier: 
                73:23:56:7B:2B:78:45:80:9A:B8:C2:7C:CC:A5:86:39:8B:26:78:C5
            Authority Information Access: 
                OCSP - URI:http://ocsp.entrust.net
            X509v3 CRL Distribution Points: 
                Full Name:
                  URI:http://crl.entrust.net/vmcr1.crl
            X509v3 Key Usage: critical
                Digital Signature, Certificate Sign, CRL Sign
            X509v3 Extended Key Usage: 
                Brand Indicator for Message Identification
            X509v3 Certificate Policies: 
                Policy: X509v3 Any Policy
                  CPS: http://www.entrust.net/rpa
    Signature Algorithm: sha512WithRSAEncryption
    Signature Value:
        0a:50:29:48:11:15:d6:86:22:af:68:88:62:84:8b:94:8b:7b:
        b9:d4:ef:83:d9:77:9c:eb:8e:67:89:7e:dd:8e:77:f0:1c:52:
        65:0c:30:dd:c5:11:a0:06:ae:88:1b:6c:1d:95:f1:f2:b0:cb:
        71:cb:21:fd:34:bb:9c:32:4e:f2:8e:56:70:17:9e:2d:d4:f2:
        e7:64:34:8a:41:9d:fe:c6:d2:6f:7e:73:48:b9:42:2c:5e:36:
        2d:21:bb:61:7f:b4:05:b2:db:93:9e:19:d0:69:de:76:86:56:
        ca:b9:8b:99:a2:7c:0d:ea:90:aa:92:bd:51:4b:ce:01:c1:c9:
        c5:a9:cb:cc:fc:df:97:e8:4b:de:1b:9d:be:31:b2:02:58:f1:
        f6:78:19:52:b5:c6:db:d7:90:fd:2b:1f:6d:24:ff:27:0e:4a:
        f3:58:a5:a6:fd:39:ad:54:be:5d:f0:15:9d:b2:75:08:5c:6d:
        6d:7c:6e:f1:6c:ed:b7:1e:91:07:dd:86:89:1d:68:ba:3e:fa:
        98:82:a7:94:68:94:38:41:1c:99:da:30:97:1a:e7:62:17:87:
        eb:d2:f2:88:67:2f:ec:4c:1a:1f:a1:48:e7:2d:35:9d:29:3a:
        41:34:75:89:99:4c:46:21:3f:d4:0a:69:e7:e0:d1:9d:87:64:
        d0:67:4b:ce:89:49:89:96:2b:7d:ef:52:ed:63:05:3b:e1:c2:
        e4:f1:90:21:cc:79:2b:33:26:f4:f9:e7:85:7a:7a:50:6c:5a:
        11:cf:01:8f:cf:34:4a:29:46:28:3d:b3:cc:7e:a4:ea:84:45:
        d0:2b:9d:c6:00:2e:ee:20:3c:2a:ed:49:68:75:de:b3:30:15:
        ee:ce:5b:36:91:b4:14:ba:c4:23:e0:e4:4c:b7:fa:cc:96:3b:
        e8:19:4a:b7:16:02:8f:bb:bf:b3:9a:5e:79:dd:99:93:e7:0d:
        2d:ce:c4:e1:95:6d:f7:60:46:46:1d:69:85:89:60:24:75:5c:
        2a:07:83:2f:1f:5e:f2:be:da:bb:1e:f1:86:2a:f4:99:88:d4:
        dc:d6:37:08:c4:bf:78:2a:65:a4:95:d7:cc:2e:89:2d:4e:ca:
        80:be:b7:2d:99:04:f8:e9:66:24:e7:10:af:10:09:63:47:d5:
        94:71:0a:f0:0a:c7:9f:a5:03:9e:67:ff:d3:15:98:6e:62:25:
        2c:c5:ca:97:35:0a:f9:78:0e:31:ef:20:50:ec:49:e7:30:3c:
        96:df:8a:45:f1:65:d5:97:dc:d1:0a:bd:37:98:c3:89:6f:10:
        6f:94:52:f8:8b:47:ff:5f:62:ac:38:48:ad:d8:3e:76:32:ec:
        98:4a:ca:cc:ad:e2:30:f9
-----BEGIN CERTIFICATE-----
MIIGZzCCBE+gAwIBAgIQaZ2P11jCw5weU9GqFHbR5jANBgkqhkiG9w0BAQ0FADBq
MQswCQYDVQQGEwJVUzEWMBQGA1UECgwNRW50cnVzdCwgSW5jLjFDMEEGA1UEAww6
RW50cnVzdCBWZXJpZmllZCBNYXJrIFJvb3QgQ2VydGlmaWNhdGlvbiBBdXRob3Jp
dHkgLSBWTUNSMTAeFw0yMTA1MDcxOTIzMjNaFw00MDEyMjkyMzU5MDBaME8xCzAJ
BgNVBAYTAlVTMRYwFAYDVQQKEw1FbnRydXN0LCBJbmMuMSgwJgYDVQQDEx9FbnRy
dXN0IFZlcmlmaWVkIE1hcmsgQ0EgLSBWTUMyMIICIjANBgkqhkiG9w0BAQEFAAOC
Ag8AMIICCgKCAgEA6J/zOP+8JnzTDCZo41MDDJPqlFTRcjVG4bDQPIi6RqXIP60U
GBvntRwcXHZRZVLQFXpfY6B+9Vmx+UqFXRveg2CcQE/QLDGqZMiGdc66ouVeEvb+
uf/0KcovTup5RVvM0kCrP7iqPWy4gYW3eh5FQQle713AkgeGF37GfpZebaOMSggw
T6ytlwrWn9cOyUCGV6yCjvGaVslhHwuOG8BilymCzwg5QFTNUVQb7RItBh/Yxkpq
gZZo/qKgmqC8IR/rmNyyFn4TRv0HaB2HvF0EfWmZlJxRFgxmfAtks4TQYjuc1uM9
1ScBGOBKm9eHQYbF/AT7K9zSzm9rG4RoqTUrINBy9LV7GEN2qYaz0Nn4Kw0wYJba
gKvFian9wjCROPXxS/oXbnA8D+M1S1DRvZZjflmniYJAx9KVg9fLXL0uHTUvvl0Y
x0w8kWo7KLDjh4b4zlyn3ULz9wNuHOlyUeJobzoZlHxzoVJeqoSqLYx0Cz7QFSLB
uP+QUczd69hKky78DJVb8t4ZH1/taUL2pzTO5FDSFq0ZTuqJaWU8nilpuVGq5pk6
e+uOAn77PELw6gv0Xf3pgH6tLfq5o9cC/KoFkMeuSHsgadvZ2++LYSmkx519wrGO
jGggl7XmrdDIq+QV5KP1tatcNdI0KvP67439jkFilqjXBRlop9eGl7eblJ0CAwEA
AaOCASIwggEeMBIGA1UdEwEB/wQIMAYBAf8CAQAwHQYDVR0OBBYEFO+8PLSvOtBF
XnZU38dkeOktHXQ/MB8GA1UdIwQYMBaAFHMjVnsreEWAmrjCfMylhjmLJnjFMDMG
CCsGAQUFBwEBBCcwJTAjBggrBgEFBQcwAYYXaHR0cDovL29jc3AuZW50cnVzdC5u
ZXQwMQYDVR0fBCowKDAmoCSgIoYgaHR0cDovL2NybC5lbnRydXN0Lm5ldC92bWNy
MS5jcmwwDgYDVR0PAQH/BAQDAgGGMBMGA1UdJQQMMAoGCCsGAQUFBwMfMDsGA1Ud
IAQ0MDIwMAYEVR0gADAoMCYGCCsGAQUFBwIBFhpodHRwOi8vd3d3LmVudHJ1c3Qu
bmV0L3JwYTANBgkqhkiG9w0BAQ0FAAOCAgEAClApSBEV1oYir2iIYoSLlIt7udTv
g9l3nOuOZ4l+3Y538BxSZQww3cURoAauiBtsHZXx8rDLccsh/TS7nDJO8o5WcBee
LdTy52Q0ikGd/sbSb35zSLlCLF42LSG7YX+0BbLbk54Z0GnedoZWyrmLmaJ8DeqQ
qpK9UUvOAcHJxanLzPzfl+hL3hudvjGyAljx9ngZUrXG29eQ/SsfbST/Jw5K81il
pv05rVS+XfAVnbJ1CFxtbXxu8Wzttx6RB92GiR1ouj76mIKnlGiUOEEcmdowlxrn
YheH69LyiGcv7EwaH6FI5y01nSk6QTR1iZlMRiE/1App5+DRnYdk0GdLzolJiZYr
fe9S7WMFO+HC5PGQIcx5KzMm9PnnhXp6UGxaEc8Bj880SilGKD2zzH6k6oRF0Cud
xgAu7iA8Ku1JaHXeszAV7s5bNpG0FLrEI+DkTLf6zJY76BlKtxYCj7u/s5peed2Z
k+cNLc7E4ZVt92BGRh1phYlgJHVcKgeDLx9e8r7aux7xhir0mYjU3NY3CMS/eCpl
pJXXzC6JLU7KgL63LZkE+OlmJOcQrxAJY0fVlHEK8ArHn6UDnmf/0xWYbmIlLMXK
lzUK+XgOMe8gUOxJ5zA8lt+KRfFl1Zfc0Qq9N5jDiW8Qb5RS+ItH/19irDhIrdg+
djLsmErKzK3iMPk=
-----END CERTIFICATE-----
