Certificate:
    Data:
        Version: 3 (0x2)
        Serial Number:
            70:94:6f:ae:be:b3:cc:e0:d8:6f:b8:76:77:80:61:cb
        Signature Algorithm: sha256WithRSAEncryption
        Issuer: C = US, O = SSL Corporation, CN = SSL.com VMC RSA Root CA 2024
        Validity
            Not Before: Feb 19 16:25:51 2024 GMT
            Not After : Feb 13 16:25:50 2048 GMT
        Subject: C = US, O = SSL Corporation, CN = SSL.com VMC RSA Root CA 2024
        Subject Public Key Info:
            Public Key Algorithm: rsaEncryption
                Public-Key: (4096 bit)
                Modulus:
                    00:8c:84:82:55:1d:39:f3:22:c3:04:b5:df:e4:3d:
                    76:1a:39:b3:06:b7:1d:b7:4f:64:1c:96:34:fc:20:
                    0f:5b:43:74:f6:32:09:da:31:d8:5d:1b:27:17:eb:
                    06:75:05:28:27:f8:e9:26:55:ec:31:12:92:7f:d8:
                    4c:a8:fb:b4:c4:a4:56:be:1c:f4:6c:cd:6e:be:d6:
                    59:23:29:ad:51:2c:80:3a:f0:0f:0f:d1:33:d6:1c:
                    c2:c1:4d:97:1d:4f:16:df:a0:0d:08:62:b4:0f:de:
                    cc:84:4e:d2:e7:b1:b4:1a:78:d3:f1:cf:ec:74:3b:
                    65:e3:8a:54:1d:16:ef:55:a8:06:dc:ba:4c:10:8d:
                    fa:5e:4b:55:01:86:0d:2b:d1:1a:64:27:75:ff:73:
                    b2:62:13:42:97:5d:a7:5c:40:6d:43:00:bb:11:67:
                    91:2d:b6:bd:80:87:74:45:b3:49:5b:84:58:b6:a4:
                    56:1e:77:a9:c6:05:ee:4a:c3:65:8f:36:90:8b:ab:
                    38:2d:70:13:01:8d:91:db:1f:43:41:cb:a5:ff:18:
                    56:11:cc:3a:6f:c9:a0:23:97:70:0e:fd:9e:f8:de:
                    87:29:19:6f:ee:dc:d7:38:0f:81:48:d1:77:87:7f:
                    51:bc:28:0c:1c:b4:63:81:ab:1b:0e:10:f9:cd:1b:
                    b1:cc:ff:c6:5a:f1:7f:e4:98:22:8c:c0:49:41:05:
                    8c:d7:1f:bc:e9:0f:08:b9:53:1e:3e:d5:f3:28:50:
                    46:6e:7c:43:7e:bf:19:d9:da:87:02:e0:75:1c:21:
                    93:85:8f:e6:9e:d6:b6:4c:49:ac:72:2f:76:c4:09:
                    80:81:fd:39:52:f4:f3:d3:07:7c:e1:d0:1e:e0:1c:
                    c5:5e:78:fb:f6:0a:af:f0:13:ea:6d:e9:82:bf:99:
                    b3:4e:bb:ad:06:0c:31:cf:e4:4c:21:a2:6a:5d:fd:
                    28:c9:e4:1f:27:72:f0:07:6e:5b:ed:7b:53:56:ae:
                    22:9a:ad:ed:73:ad:ae:80:b8:e8:83:1b:2f:6c:d5:
                    40:36:35:97:2b:d4:7e:fc:1c:fb:92:ad:7e:36:15:
                    a6:7b:25:7b:b8:3e:7e:41:2e:a5:6b:db:40:70:96:
                    65:1e:22:13:d8:c5:35:1e:84:4c:5d:9d:6a:60:0c:
                    c7:ec:ae:14:ff:9d:7f:27:38:08:06:54:a0:6c:33:
                    d3:e6:61:50:86:2e:4d:e1:0c:08:f4:ae:64:0b:c7:
                    cb:4b:a0:4c:f1:2e:49:ce:4b:2a:72:79:24:af:9b:
                    39:ea:ad:6d:19:10:56:61:42:ef:87:e4:02:a8:64:
                    09:fc:ed:be:47:24:1d:b4:c2:23:9b:a4:a1:e2:ae:
                    78:24:49
                Exponent: 65537 (0x10001)
        X509v3 extensions:
            X509v3 Basic Constraints: critical
                CA:TRUE
            X509v3 Authority Key Identifier: 
                C1:35:A2:F4:59:D9:07:76:97:FD:CA:E8:6B:77:D6:26:AE:7A:5A:FB
            X509v3 Subject Key Identifier: 
                C1:35:A2:F4:59:D9:07:76:97:FD:CA:E8:6B:77:D6:26:AE:7A:5A:FB
            X509v3 Key Usage: critical
                Digital Signature, Certificate Sign, CRL Sign
    Signature Algorithm: sha256WithRSAEncryption
    Signature Value:
        21:eb:77:f8:ad:be:b1:e7:fa:49:90:44:fb:97:05:b2:72:98:
        b5:a8:22:e7:42:35:88:40:89:43:38:ae:b3:2c:35:c0:af:4a:
        7a:66:a7:e1:36:6c:87:08:a8:e1:9f:e7:bd:aa:b6:79:dd:ec:
        dd:86:05:2f:a0:46:92:c2:53:24:f2:26:ac:46:90:23:76:aa:
        1d:ad:7a:00:4c:f0:e8:5d:a4:de:0c:fb:f3:06:dc:a6:3c:a0:
        18:93:1e:91:5a:e1:c8:5e:65:13:e1:2b:45:c6:3d:24:6a:35:
        20:6b:1c:05:89:59:71:79:07:25:38:4d:3b:d8:04:ca:81:fe:
        a2:ce:f7:28:8b:18:e3:5d:b4:08:17:b7:8d:b7:ce:85:1a:43:
        66:2a:05:c1:4c:5e:a5:dc:c4:cf:1f:19:45:71:ac:cf:9f:26:
        fb:43:52:d1:c0:5c:be:4a:a9:22:99:c8:d9:31:43:4f:f9:4a:
        d2:cd:b2:b3:ae:61:d9:82:e1:0e:c5:27:86:d2:76:29:df:1b:
        a0:ff:88:99:ac:e0:a5:fa:63:81:51:1e:08:2a:68:3f:35:a6:
        9a:53:33:c6:bd:3c:dd:fd:0c:c9:ae:2e:48:f8:9d:93:f1:64:
        55:8a:37:97:e3:40:51:c7:c7:59:c7:c7:e9:c6:bb:5e:b9:b9:
        0d:7b:0e:68:fd:1c:0d:66:98:a6:16:c4:29:55:62:d7:ae:15:
        d3:77:cd:0a:55:b7:a7:bc:73:2c:20:d4:7f:37:40:69:0b:35:
        25:8d:46:87:41:a0:1f:87:4d:76:9f:81:80:68:e3:50:f6:7c:
        e8:86:61:0a:e3:aa:d2:b9:b7:73:37:f1:6f:6e:65:e9:6b:80:
        7f:b0:34:82:ae:28:56:03:0d:6d:b2:1e:a5:aa:7c:61:16:db:
        53:79:c6:97:80:3e:b3:aa:a3:b4:88:72:e9:01:95:59:8a:b0:
        41:51:25:3f:b6:da:d6:c6:e1:a8:bb:b9:52:ef:d0:c8:8f:c1:
        e6:e1:01:3b:7a:13:bc:d8:1c:a6:57:7c:8c:52:93:a8:83:bd:
        c8:58:33:bc:83:ba:5e:17:f0:5b:95:6f:2c:7a:33:97:36:fb:
        7c:cf:21:3c:a9:eb:75:de:47:4f:75:e7:15:39:0a:97:fc:b8:
        cc:ba:f0:3a:7b:cd:86:1e:50:31:07:be:1c:49:e9:49:cb:9f:
        5f:f7:05:3e:1e:7a:f1:b5:62:71:5d:3a:d4:8b:cb:a0:6a:fc:
        e2:b9:60:c4:ef:91:8d:6b:88:2c:e8:97:09:58:b4:ec:9b:10:
        2e:6a:60:0f:e7:9b:a5:38:ad:ec:7a:d5:a4:22:5a:d5:26:57:
        78:79:73:91:cf:f2:23:be
-----BEGIN CERTIFICATE-----
MIIFiTCCA3GgAwIBAgIQcJRvrr6zzODYb7h2d4BhyzANBgkqhkiG9w0BAQsFADBO
MQswCQYDVQQGEwJVUzEYMBYGA1UECgwPU1NMIENvcnBvcmF0aW9uMSUwIwYDVQQD
DBxTU0wuY29tIFZNQyBSU0EgUm9vdCBDQSAyMDI0MB4XDTI0MDIxOTE2MjU1MVoX
DTQ4MDIxMzE2MjU1MFowTjELMAkGA1UEBhMCVVMxGDAWBgNVBAoMD1NTTCBDb3Jw
b3JhdGlvbjElMCMGA1UEAwwcU1NMLmNvbSBWTUMgUlNBIFJvb3QgQ0EgMjAyNDCC
AiIwDQYJKoZIhvcNAQEBBQADggIPADCCAgoCggIBAIyEglUdOfMiwwS13+Q9dho5
swa3HbdPZByWNPwgD1tDdPYyCdox2F0bJxfrBnUFKCf46SZV7DESkn/YTKj7tMSk
Vr4c9GzNbr7WWSMprVEsgDrwDw/RM9YcwsFNlx1PFt+gDQhitA/ezIRO0uextBp4
0/HP7HQ7ZeOKVB0W71WoBty6TBCN+l5LVQGGDSvRGmQndf9zsmITQpddp1xAbUMA
uxFnkS22vYCHdEWzSVuEWLakVh53qcYF7krDZY82kIurOC1wEwGNkdsfQ0HLpf8Y
VhHMOm/JoCOXcA79nvjehykZb+7c1zgPgUjRd4d/UbwoDBy0Y4GrGw4Q+c0bscz/
xlrxf+SYIozASUEFjNcfvOkPCLlTHj7V8yhQRm58Q36/GdnahwLgdRwhk4WP5p7W
tkxJrHIvdsQJgIH9OVL089MHfOHQHuAcxV54+/YKr/AT6m3pgr+Zs067rQYMMc/k
TCGial39KMnkHydy8AduW+17U1auIpqt7XOtroC46IMbL2zVQDY1lyvUfvwc+5Kt
fjYVpnsle7g+fkEupWvbQHCWZR4iE9jFNR6ETF2damAMx+yuFP+dfyc4CAZUoGwz
0+ZhUIYuTeEMCPSuZAvHy0ugTPEuSc5LKnJ5JK+bOeqtbRkQVmFC74fkAqhkCfzt
vkckHbTCI5ukoeKueCRJAgMBAAGjYzBhMA8GA1UdEwEB/wQFMAMBAf8wHwYDVR0j
BBgwFoAUwTWi9FnZB3aX/croa3fWJq56WvswHQYDVR0OBBYEFME1ovRZ2Qd2l/3K
6Gt31iauelr7MA4GA1UdDwEB/wQEAwIBhjANBgkqhkiG9w0BAQsFAAOCAgEAIet3
+K2+sef6SZBE+5cFsnKYtagi50I1iECJQziusyw1wK9Keman4TZshwio4Z/nvaq2
ed3s3YYFL6BGksJTJPImrEaQI3aqHa16AEzw6F2k3gz78wbcpjygGJMekVrhyF5l
E+ErRcY9JGo1IGscBYlZcXkHJThNO9gEyoH+os73KIsY4120CBe3jbfOhRpDZioF
wUxepdzEzx8ZRXGsz58m+0NS0cBcvkqpIpnI2TFDT/lK0s2ys65h2YLhDsUnhtJ2
Kd8boP+ImazgpfpjgVEeCCpoPzWmmlMzxr083f0Mya4uSPidk/FkVYo3l+NAUcfH
WcfH6ca7Xrm5DXsOaP0cDWaYphbEKVVi164V03fNClW3p7xzLCDUfzdAaQs1JY1G
h0GgH4dNdp+BgGjjUPZ86IZhCuOq0rm3czfxb25l6WuAf7A0gq4oVgMNbbIepap8
YRbbU3nGl4A+s6qjtIhy6QGVWYqwQVElP7ba1sbhqLu5Uu/QyI/B5uEBO3oTvNgc
pld8jFKTqIO9yFgzvIO6XhfwW5VvLHozlzb7fM8hPKnrdd5HT3XnFTkKl/y4zLrw
OnvNhh5QMQe+HEnpScufX/cFPh568bVicV061IvLoGr84rlgxO+RjWuILOiXCVi0
7JsQLmpgD+ebpTit7HrVpCJa1SZXeHlzkc/yI74=
-----END CERTIFICATE-----
