Certificate:
    Data:
        Version: 3 (0x2)
        Serial Number:
            74:39:00:bd:5b:07:fc:63:d7:e9:15:04:52:c8:9b:b7:01:68:04:63
        Signature Algorithm: sha512WithRSAEncryption
        Issuer: C = US, O = "Entrust, Inc.", CN = Entrust Verified Mark Root Certification Authority - VMCR1
        Validity
            Not Before: May  7 13:31:48 2021 GMT
            Not After : Dec 30 13:31:48 2040 GMT
        Subject: C = US, O = "Entrust, Inc.", CN = Entrust Verified Mark Root Certification Authority - VMCR1
        Subject Public Key Info:
            Public Key Algorithm: rsaEncryption
                Public-Key: (4096 bit)
                Modulus:
                    00:bd:52:fc:62:6d:c3:71:08:dc:9e:82:72:f8:45:
                    45:3a:40:65:45:a7:4d:38:23:ff:49:f4:e3:11:01:
                    11:9b:b8:6d:54:7c:26:56:05:9d:a7:5f:4e:6f:82:
                    2f:25:24:2c:25:3b:22:9a:2a:63:40:fa:8c:37:03:
                    da:c9:16:b9:79:d2:b1:37:90:b6:21:48:0e:21:89:
                    1f:87:3a:41:69:8d:5f:0d:66:64:39:4d:84:bb:1e:
                    d2:ad:ac:7d:70:b1:94:09:5f:06:bf:4c:73:62:8e:
                    ac:d5:05:93:7e:8b:77:a5:50:11:93:9b:fd:1d:5a:
                    53:f1:b0:6d:f3:74:03:ff:26:0d:04:91:a0:81:e5:
                    16:05:ab:b6:a6:30:39:10:45:f0:c1:6a:bf:86:b6:
                    32:f1:3c:e7:c8:7a:29:a2:9a:07:2f:fc:4d:53:2e:
                    be:e6:19:df:6b:1a:d7:21:87:89:b0:0f:f0:aa:f4:
                    61:a1:47:88:af:a2:2c:9c:67:25:c7:23:c9:78:f3:
                    7c:b3:18:cd:0f:6b:b7:f5:2e:02:51:d3:21:7b:0d:
                    24:4f:99:62:8e:0e:de:e9:cf:30:ad:b9:94:71:9e:
                    9c:45:51:58:e6:62:21:59:bf:2a:5f:c9:77:1a:b1:
                    11:36:51:0f:00:92:2a:25:e5:1d:c5:c7:90:54:ed:
                    bc:e4:11:43:9a:9c:47:4a:75:32:b8:08:53:3a:f3:
                    55:94:aa:20:cf:4e:f7:6a:bf:b4:e8:2c:2b:2b:fe:
                    1a:84:dc:84:15:6b:9f:9e:cd:ab:61:2c:6a:b1:4f:
                    db:34:2a:2e:54:82:d9:9d:4a:4c:ef:9c:d9:b8:df:
                    f7:40:5b:0c:bf:a6:97:16:32:71:b4:5f:1d:ce:46:
                    67:d2:d7:9f:19:a2:94:14:8b:cf:99:b4:30:6a:b5:
                    b9:a9:aa:0b:9a:64:ae:2e:d5:da:d0:de:f8:c6:f7:
                    15:07:03:ff:20:e1:69:3b:3b:8c:bf:ce:0e:fd:5d:
                    62:fd:ce:09:0f:58:cd:46:6d:82:f5:92:ab:38:bd:
                    ac:7b:76:c8:5a:2d:47:e5:cc:e0:10:7c:9f:70:de:
                    d5:02:a7:14:b6:41:ee:ce:3a:f7:14:54:52:31:48:
                    27:4e:e5:39:aa:41:4e:e6:56:b1:aa:c4:0a:d0:16:
                    96:85:b4:b8:aa:f4:f8:b2:ce:da:73:57:de:df:76:
                    a9:b3:dc:98:4b:bd:74:8d:99:ec:af:78:54:b6:7f:
                    38:d8:55:ba:ba:0f:2e:5c:c9:df:ab:53:3f:8c:cb:
                    5e:8e:46:5d:a3:18:52:7a:2c:29:ad:a3:90:cb:b8:
                    41:f2:08:f6:0f:0d:90:76:11:99:40:64:db:ab:e7:
                    09:2d:89
                Exponent: 65537 (0x10001)
        X509v3 extensions:
            X509v3 Subject Key Identifier: 
                73:23:56:7B:2B:78:45:80:9A:B8:C2:7C:CC:A5:86:39:8B:26:78:C5
            X509v3 Basic Constraints: critical
                CA:TRUE
            X509v3 Key Usage: critical
                Digital Signature, Certificate Sign, CRL Sign
    Signature Algorithm: sha512WithRSAEncryption
    Signature Value:
        48:cb:59:e7:7a:cc:1b:e6:c3:18:96:d8:08:2b:9c:bf:d2:b3:
        aa:00:8b:d7:ae:91:57:d1:2a:d3:34:0e:5c:84:dc:7d:5a:49:
        98:57:81:2e:af:eb:33:35:c2:39:d5:8d:4d:d3:f1:eb:23:5d:
        79:69:3a:39:6e:46:ba:59:70:cc:98:6c:ba:d8:87:72:bc:90:
        69:c0:d1:1c:49:cc:7f:42:e8:74:ec:b6:4d:62:d6:5a:89:ec:
        c9:cb:55:1d:ad:8f:b5:b7:15:89:66:7b:a2:97:2d:51:39:ac:
        2b:a2:5d:30:70:80:39:91:c7:eb:83:63:d1:5a:f4:54:06:8b:
        7f:f0:3f:7c:5f:99:95:4d:48:6d:c5:35:1a:2f:c5:04:9b:9d:
        ad:3e:d8:0f:62:12:98:8b:a4:0a:fe:e1:b1:d8:40:b6:0f:53:
        b8:e5:64:58:a9:74:81:f0:da:75:e8:d3:53:89:79:56:54:f9:
        f2:87:e4:c6:0e:5a:00:bd:97:3c:97:fb:cb:02:b3:81:69:56:
        80:ba:48:65:63:2c:9f:af:bb:74:e8:80:ab:b1:aa:b1:52:8d:
        cc:42:93:c8:07:37:1e:ce:36:86:92:ad:1e:f6:45:0c:62:77:
        98:65:54:34:f3:63:12:21:fb:39:9e:ea:d6:02:81:ed:ec:ac:
        58:37:14:a7:e2:0c:2e:7f:a7:ba:40:e8:25:46:fd:1f:e4:e2:
        17:48:bb:66:8f:ab:a0:fc:b3:bf:e7:f2:da:d2:6e:8a:81:7d:
        36:45:46:aa:a3:ab:7d:32:f1:3a:8d:74:80:23:38:d9:b6:b8:
        31:fe:8f:92:f0:b8:16:49:0d:6f:ba:bb:39:58:ba:9e:c3:bc:
        a5:43:49:f8:f6:a0:c0:5c:8c:2e:9d:2f:a9:de:1a:0d:35:2b:
        b9:ec:bb:b4:ac:fb:e9:23:35:0f:aa:cd:f5:62:45:81:9b:29:
        62:3e:1d:28:24:0f:75:ed:f6:25:df:7f:4a:4e:86:e6:51:e6:
        21:b0:2a:a8:d6:0b:a8:f4:41:c4:1c:95:48:18:3d:fb:5d:63:
        32:2e:de:d6:42:24:31:05:77:c2:77:41:9e:d4:4a:8c:75:3c:
        1d:dd:09:fd:47:0a:f2:f7:8b:69:14:76:5c:40:93:c7:42:3d:
        23:7d:45:8a:ce:10:d1:c4:95:cf:ee:28:5d:61:81:b9:a4:44:
        28:4b:ad:d7:4a:b6:70:05:af:77:5a:94:3a:32:e5:03:82:ec:
        c4:aa:55:32:f7:3e:96:8c:88:cb:9b:34:f8:87:dc:a8:de:06:
        1d:88:c1:28:af:a6:f8:65:ac:fe:ed:90:e0:18:8a:79:5c:70:
        82:45:91:c4:1b:32:60:f0
-----BEGIN CERTIFICATE-----
MIIFpDCCA4ygAwIBAgIUdDkAvVsH/GPX6RUEUsibtwFoBGMwDQYJKoZIhvcNAQEN
BQAwajELMAkGA1UEBhMCVVMxFjAUBgNVBAoMDUVudHJ1c3QsIEluYy4xQzBBBgNV
BAMMOkVudHJ1c3QgVmVyaWZpZWQgTWFyayBSb290IENlcnRpZmljYXRpb24gQXV0
aG9yaXR5IC0gVk1DUjEwHhcNMjEwNTA3MTMzMTQ4WhcNNDAxMjMwMTMzMTQ4WjBq
MQswCQYDVQQGEwJVUzEWMBQGA1UECgwNRW50cnVzdCwgSW5jLjFDMEEGA1UEAww6
RW50cnVzdCBWZXJpZmllZCBNYXJrIFJvb3QgQ2VydGlmaWNhdGlvbiBBdXRob3Jp
dHkgLSBWTUNSMTCCAiIwDQYJKoZIhvcNAQEBBQADggIPADCCAgoCggIBAL1S/GJt
w3EI3J6CcvhFRTpAZUWnTTgj/0n04xEBEZu4bVR8JlYFnadfTm+CLyUkLCU7Ipoq
Y0D6jDcD2skWuXnSsTeQtiFIDiGJH4c6QWmNXw1mZDlNhLse0q2sfXCxlAlfBr9M
c2KOrNUFk36Ld6VQEZOb/R1aU/GwbfN0A/8mDQSRoIHlFgWrtqYwORBF8MFqv4a2
MvE858h6KaKaBy/8TVMuvuYZ32sa1yGHibAP8Kr0YaFHiK+iLJxnJccjyXjzfLMY
zQ9rt/UuAlHTIXsNJE+ZYo4O3unPMK25lHGenEVRWOZiIVm/Kl/JdxqxETZRDwCS
KiXlHcXHkFTtvOQRQ5qcR0p1MrgIUzrzVZSqIM9O92q/tOgsKyv+GoTchBVrn57N
q2EsarFP2zQqLlSC2Z1KTO+c2bjf90BbDL+mlxYycbRfHc5GZ9LXnxmilBSLz5m0
MGq1uamqC5pkri7V2tDe+Mb3FQcD/yDhaTs7jL/ODv1dYv3OCQ9YzUZtgvWSqzi9
rHt2yFotR+XM4BB8n3De1QKnFLZB7s469xRUUjFIJ07lOapBTuZWsarECtAWloW0
uKr0+LLO2nNX3t92qbPcmEu9dI2Z7K94VLZ/ONhVuroPLlzJ36tTP4zLXo5GXaMY
UnosKa2jkMu4QfII9g8NkHYRmUBk26vnCS2JAgMBAAGjQjBAMB0GA1UdDgQWBBRz
I1Z7K3hFgJq4wnzMpYY5iyZ4xTAPBgNVHRMBAf8EBTADAQH/MA4GA1UdDwEB/wQE
AwIBhjANBgkqhkiG9w0BAQ0FAAOCAgEASMtZ53rMG+bDGJbYCCucv9KzqgCL166R
V9Eq0zQOXITcfVpJmFeBLq/rMzXCOdWNTdPx6yNdeWk6OW5GullwzJhsutiHcryQ
acDRHEnMf0LodOy2TWLWWonsyctVHa2PtbcViWZ7opctUTmsK6JdMHCAOZHH64Nj
0Vr0VAaLf/A/fF+ZlU1IbcU1Gi/FBJudrT7YD2ISmIukCv7hsdhAtg9TuOVkWKl0
gfDadejTU4l5VlT58ofkxg5aAL2XPJf7ywKzgWlWgLpIZWMsn6+7dOiAq7GqsVKN
zEKTyAc3Hs42hpKtHvZFDGJ3mGVUNPNjEiH7OZ7q1gKB7eysWDcUp+IMLn+nukDo
JUb9H+TiF0i7Zo+roPyzv+fy2tJuioF9NkVGqqOrfTLxOo10gCM42ba4Mf6PkvC4
FkkNb7q7OVi6nsO8pUNJ+PagwFyMLp0vqd4aDTUruey7tKz76SM1D6rN9WJFgZsp
Yj4dKCQPde32Jd9/Sk6G5lHmIbAqqNYLqPRBxByVSBg9+11jMi7e1kIkMQV3wndB
ntRKjHU8Hd0J/UcK8veLaRR2XECTx0I9I31Fis4Q0cSVz+4oXWGBuaREKEut10q2
cAWvd1qUOjLlA4LsxKpVMvc+loyIy5s0+IfcqN4GHYjBKK+m+GWs/u2Q4BiKeVxw
gkWRxBsyYPA=
-----END CERTIFICATE-----
