Certificate:
    Data:
        Version: 3 (0x2)
        Serial Number:
            7f:e5:30:93:0b:86:4a:36:ef:80:ba:86:86:c1:a9:ae
        Signature Algorithm: sha384WithRSAEncryption
        Issuer: C = BE, O = GlobalSign nv-sa, CN = GlobalSign Verified Mark Root R42
        Validity
            Not Before: Nov 15 03:42:46 2023 GMT
            Not After : Nov 15 00:00:00 2038 GMT
        Subject: C = BE, O = GlobalSign nv-sa, CN = GlobalSign GCC R42 Verified Mark CA 2023
        Subject Public Key Info:
            Public Key Algorithm: rsaEncryption
                Public-Key: (4096 bit)
                Modulus:
                    00:f1:24:8e:f2:45:c6:3c:d9:71:c9:d7:5d:e4:df:
                    10:54:0d:67:58:69:71:c5:ce:44:0b:35:62:d2:70:
                    6c:01:6d:34:e6:bf:ca:f3:44:d4:83:1a:3f:93:d6:
                    00:9e:00:f6:ca:ca:4e:14:59:85:ea:2c:9f:7f:d8:
                    4b:b3:3e:f2:bd:a9:0d:da:86:83:1e:fe:99:57:b1:
                    98:ba:e2:81:c2:8d:7b:1d:ee:03:bb:73:aa:c2:f9:
                    c1:e1:b5:48:2d:dc:62:90:38:4f:3b:e0:b6:38:d3:
                    46:90:33:bb:18:10:30:bd:9b:9b:8d:97:b6:a2:9d:
                    c8:c8:93:16:0d:10:aa:7b:fe:fb:d9:21:50:b9:89:
                    d6:10:5a:33:13:0c:ff:c7:1d:64:a5:eb:7c:df:96:
                    1c:32:de:3f:a5:07:44:c2:12:f9:31:c9:fd:47:13:
                    4b:e9:4d:de:ee:26:69:1c:a1:e1:ad:cd:4a:f4:e5:
                    8c:37:51:56:c0:d9:cf:db:a2:55:14:67:ee:70:a3:
                    a0:fc:43:1d:9e:8f:33:fa:3d:d7:c1:76:0e:83:6b:
                    82:13:47:06:82:8a:5f:06:56:1d:90:91:b4:2e:e4:
                    20:f9:1b:31:f3:e3:f5:9b:76:d1:2b:f3:d5:f3:11:
                    e1:31:48:51:97:c9:d8:23:44:bb:28:e5:0b:7f:00:
                    ad:79:f9:4c:25:fe:1f:c0:b4:26:84:d0:2a:8d:de:
                    05:6e:a6:71:40:3e:e3:c0:9f:c2:45:f8:20:33:43:
                    02:b9:d5:cc:9b:12:15:b7:38:15:83:e5:fe:da:76:
                    39:55:62:df:2c:0b:fb:e3:ac:f5:e0:34:29:ab:9b:
                    11:bf:b2:83:99:34:85:6e:96:c5:58:66:98:20:48:
                    3b:dc:f3:b7:fd:9a:96:e8:c4:52:78:e6:37:da:05:
                    73:1e:9d:98:0b:83:39:6f:b0:99:30:fd:01:1a:ec:
                    88:8a:bd:ae:6a:fe:ba:07:3e:29:03:7f:16:0d:5e:
                    49:9e:06:3d:56:db:6e:d4:78:1b:7b:8b:a5:ef:a4:
                    c7:f9:01:52:ea:6a:d8:3f:a7:ff:20:35:df:ac:12:
                    af:64:06:24:21:6b:a1:ff:09:ed:5d:70:32:1c:3c:
                    72:a5:63:ae:02:ef:5a:a7:2e:b9:d7:28:5f:7f:05:
                    c1:31:48:09:34:75:66:1e:c1:35:14:4e:17:28:03:
                    fa:c7:34:23:9e:a7:67:26:f6:38:86:95:56:e8:78:
                    0b:d2:3c:c0:cc:9a:a1:97:8d:3b:99:14:f6:91:ab:
                    76:b7:e9:09:ce:82:12:51:68:16:b3:b1:ca:92:04:
                    7b:8a:b2:96:cd:83:91:36:16:b4:00:61:40:e9:2f:
                    19:4d:b9
                Exponent: 65537 (0x10001)
        X509v3 extensions:
            X509v3 Key Usage: critical
                Digital Signature, Certificate Sign, CRL Sign
            X509v3 Extended Key Usage: 
                Brand Indicator for Message Identification
            X509v3 Basic Constraints: critical
                CA:TRUE, pathlen:0
            X509v3 Subject Key Identifier: 
                8C:D8:30:07:82:CE:11:51:FA:0B:B7:EF:B7:46:95:72:C1:76:B3:4E
            X509v3 Authority Key Identifier: 
                3D:B3:E3:F5:20:AE:B9:D3:AC:9B:14:BC:70:25:EE:0F:0A:7E:95:C9
            Authority Information Access: 
                OCSP - URI:http://ocsp.globalsign.com/gsverifiedmarkrootr42
                CA Issuers - URI:http://secure.globalsign.com/cacert/gsverifiedmarkrootr42.crt
            X509v3 CRL Distribution Points: 
                Full Name:
                  URI:http://crl.globalsign.com/gsverifiedmarkrootr42.crl
            X509v3 Certificate Policies: 
                Policy: X509v3 Any Policy
    Signature Algorithm: sha384WithRSAEncryption
    Signature Value:
        9f:8b:d2:a4:45:a9:58:ab:1c:30:08:14:1e:0b:1d:d7:5f:53:
        16:39:20:d2:22:61:9d:25:81:83:63:1e:d0:50:eb:04:b0:3a:
        83:f0:f7:18:a4:f3:44:a3:63:4a:bf:19:98:4f:b0:6c:60:a9:
        2e:5d:ed:89:60:ad:0f:6a:f1:15:8a:7a:98:ba:b6:9a:ca:75:
        81:1e:c8:03:c2:2b:f7:c2:8c:6c:b2:d0:73:4c:7f:1b:84:33:
        0c:6c:19:c8:2e:98:ac:bb:c1:ce:4b:44:45:99:75:ee:9b:50:
        bc:75:80:5a:78:d2:ae:25:50:d6:db:62:2f:b9:3b:9f:56:15:
        7d:e2:b5:5b:b6:aa:d5:3b:ce:a7:17:7d:af:af:da:67:4d:ff:
        6e:69:15:95:b8:ef:f3:3f:a8:2a:c2:98:04:be:57:65:2d:0f:
        85:77:c4:38:8a:36:23:ba:61:b2:6c:05:20:a5:4c:ad:96:71:
        73:1e:8c:9d:d8:76:eb:57:22:48:aa:6a:a6:b6:0f:9b:5b:09:
        ae:28:7c:04:da:55:5b:ea:98:07:c2:04:8e:3c:05:fe:03:71:
        ba:84:a8:98:0d:08:b3:71:f7:f2:94:01:20:20:09:26:0d:9d:
        00:09:ce:75:c2:0e:98:c1:ef:e2:d3:06:e8:fe:59:70:cb:a8:
        a2:16:b6:ef:40:08:ff:e4:8a:18:fc:15:b4:e6:6e:cf:a3:c6:
        c5:f3:92:c9:75:4d:4a:23:9c:87:7c:f3:69:72:23:7f:cd:31:
        a0:2a:c5:13:8e:f0:ea:da:2f:c8:42:d0:0b:bb:86:5b:31:19:
        7b:8a:c9:30:9c:f0:c7:c6:98:88:55:0d:a7:d0:4b:79:b8:b7:
        e2:00:7e:a4:fd:32:97:78:8d:58:49:20:63:3f:fa:0e:b0:bb:
        4e:31:ad:b9:de:cc:0e:f5:23:d2:6e:04:96:6a:d2:53:a2:b6:
        df:3c:9f:88:37:e8:fb:27:b1:e4:97:7a:cb:b9:ba:ff:f8:23:
        44:35:8f:46:89:08:70:4c:aa:ec:68:e3:50:b8:a5:ec:b8:c9:
        45:82:ef:25:19:a2:e1:bc:5f:13:4c:f6:eb:4e:92:38:a7:b2:
        09:77:dc:7a:6d:91:d8:66:e7:d4:ec:69:30:47:54:03:3e:9d:
        40:67:1a:86:f0:6e:99:a9:1d:ad:7c:59:30:39:ca:1d:33:f7:
        85:0e:ec:bd:4a:00:48:65:0b:1e:4a:c8:28:dc:7c:b3:7e:9f:
        36:86:17:78:0d:5e:92:12:8b:1b:87:61:a8:0d:31:aa:3c:65:
        f1:fe:b3:ec:b1:87:0c:09:3d:06:56:b0:29:c1:fb:43:4e:37:
        06:e5:1e:8e:27:9c:09:f1
-----BEGIN CERTIFICATE-----
MIIGrTCCBJWgAwIBAgIQf+UwkwuGSjbvgLqGhsGprjANBgkqhkiG9w0BAQwFADBU
MQswCQYDVQQGEwJCRTEZMBcGA1UEChMQR2xvYmFsU2lnbiBudi1zYTEqMCgGA1UE
AxMhR2xvYmFsU2lnbiBWZXJpZmllZCBNYXJrIFJvb3QgUjQyMB4XDTIzMTExNTAz
NDI0NloXDTM4MTExNTAwMDAwMFowWzELMAkGA1UEBhMCQkUxGTAXBgNVBAoTEEds
b2JhbFNpZ24gbnYtc2ExMTAvBgNVBAMTKEdsb2JhbFNpZ24gR0NDIFI0MiBWZXJp
ZmllZCBNYXJrIENBIDIwMjMwggIiMA0GCSqGSIb3DQEBAQUAA4ICDwAwggIKAoIC
AQDxJI7yRcY82XHJ113k3xBUDWdYaXHFzkQLNWLScGwBbTTmv8rzRNSDGj+T1gCe
APbKyk4UWYXqLJ9/2EuzPvK9qQ3ahoMe/plXsZi64oHCjXsd7gO7c6rC+cHhtUgt
3GKQOE874LY400aQM7sYEDC9m5uNl7aincjIkxYNEKp7/vvZIVC5idYQWjMTDP/H
HWSl63zflhwy3j+lB0TCEvkxyf1HE0vpTd7uJmkcoeGtzUr05Yw3UVbA2c/bolUU
Z+5wo6D8Qx2ejzP6PdfBdg6Da4ITRwaCil8GVh2QkbQu5CD5GzHz4/WbdtEr89Xz
EeExSFGXydgjRLso5Qt/AK15+Uwl/h/AtCaE0CqN3gVupnFAPuPAn8JF+CAzQwK5
1cybEhW3OBWD5f7adjlVYt8sC/vjrPXgNCmrmxG/soOZNIVulsVYZpggSDvc87f9
mpboxFJ45jfaBXMenZgLgzlvsJkw/QEa7IiKva5q/roHPikDfxYNXkmeBj1W227U
eBt7i6XvpMf5AVLqatg/p/8gNd+sEq9kBiQha6H/Ce1dcDIcPHKlY64C71qnLrnX
KF9/BcExSAk0dWYewTUUThcoA/rHNCOep2cm9jiGlVboeAvSPMDMmqGXjTuZFPaR
q3a36QnOghJRaBazscqSBHuKspbNg5E2FrQAYUDpLxlNuQIDAQABo4IBcjCCAW4w
DgYDVR0PAQH/BAQDAgGGMBMGA1UdJQQMMAoGCCsGAQUFBwMfMBIGA1UdEwEB/wQI
MAYBAf8CAQAwHQYDVR0OBBYEFIzYMAeCzhFR+gu377dGlXLBdrNOMB8GA1UdIwQY
MBaAFD2z4/UgrrnTrJsUvHAl7g8KfpXJMIGZBggrBgEFBQcBAQSBjDCBiTA8Bggr
BgEFBQcwAYYwaHR0cDovL29jc3AuZ2xvYmFsc2lnbi5jb20vZ3N2ZXJpZmllZG1h
cmtyb290cjQyMEkGCCsGAQUFBzAChj1odHRwOi8vc2VjdXJlLmdsb2JhbHNpZ24u
Y29tL2NhY2VydC9nc3ZlcmlmaWVkbWFya3Jvb3RyNDIuY3J0MEQGA1UdHwQ9MDsw
OaA3oDWGM2h0dHA6Ly9jcmwuZ2xvYmFsc2lnbi5jb20vZ3N2ZXJpZmllZG1hcmty
b290cjQyLmNybDARBgNVHSAECjAIMAYGBFUdIAAwDQYJKoZIhvcNAQEMBQADggIB
AJ+L0qRFqVirHDAIFB4LHddfUxY5INIiYZ0lgYNjHtBQ6wSwOoPw9xik80SjY0q/
GZhPsGxgqS5d7YlgrQ9q8RWKepi6tprKdYEeyAPCK/fCjGyy0HNMfxuEMwxsGcgu
mKy7wc5LREWZde6bULx1gFp40q4lUNbbYi+5O59WFX3itVu2qtU7zqcXfa+v2mdN
/25pFZW47/M/qCrCmAS+V2UtD4V3xDiKNiO6YbJsBSClTK2WcXMejJ3YdutXIkiq
aqa2D5tbCa4ofATaVVvqmAfCBI48Bf4DcbqEqJgNCLNx9/KUASAgCSYNnQAJznXC
DpjB7+LTBuj+WXDLqKIWtu9ACP/kihj8FbTmbs+jxsXzksl1TUojnId882lyI3/N
MaAqxROO8OraL8hC0Au7hlsxGXuKyTCc8MfGmIhVDafQS3m4t+IAfqT9Mpd4jVhJ
IGM/+g6wu04xrbnezA71I9JuBJZq0lOitt88n4g36PsnseSXesu5uv/4I0Q1j0aJ
CHBMquxo41C4pey4yUWC7yUZouG8XxNM9utOkjinsgl33Hptkdhm59TsaTBHVAM+
nUBnGobwbpmpHa18WTA5yh0z94UO7L1KAEhlCx5KyCjcfLN+nzaGF3gNXpISixuH
YagNMao8ZfH+s+yxhwwJPQZWsCnB+0NONwblHo4nnAnx
-----END CERTIFICATE-----
