Certificate:
    Data:
        Version: 3 (0x2)
        Serial Number:
            7f:e5:30:03:81:98:a7:5f:7d:17:c0:0f:24:2c:ab:f3
        Signature Algorithm: sha384WithRSAEncryption
        Issuer: C = BE, O = GlobalSign nv-sa, CN = GlobalSign Verified Mark Root R42
        Validity
            Not Before: Nov 15 03:40:52 2023 GMT
            Not After : Nov 15 00:00:00 2042 GMT
        Subject: C = BE, O = GlobalSign nv-sa, CN = GlobalSign Verified Mark Root R42
        Subject Public Key Info:
            Public Key Algorithm: rsaEncryption
                Public-Key: (4096 bit)
                Modulus:
                    00:dc:ea:4d:cb:ee:6d:16:ea:5f:40:b3:3f:bb:19:
                    6c:77:dd:d6:eb:2a:58:e3:eb:1f:3a:0b:bd:b6:53:
                    9c:9a:ad:f5:68:01:c1:0c:1c:18:41:65:f2:b9:88:
                    70:eb:2c:ed:79:9e:c0:0a:a3:a0:2c:7b:3d:0a:75:
                    14:9f:bf:a3:fc:86:7b:33:1b:9c:f0:a0:94:05:70:
                    5a:9b:54:38:c2:1a:ed:42:7f:f2:aa:d5:e7:4f:ea:
                    41:24:4d:f2:cf:0c:01:c9:e1:8f:70:1b:25:af:e6:
                    56:39:4c:1f:38:d8:0a:8d:0e:fa:37:36:e2:e1:e5:
                    10:77:08:a3:7b:c9:3e:c3:f6:4b:2f:47:c1:c3:07:
                    e3:00:76:ad:0e:31:0c:de:e4:02:7e:4d:9a:a5:c8:
                    c4:0b:d2:9c:9d:8a:1a:b6:6c:a0:dc:7c:30:60:1f:
                    5f:97:65:d0:00:8e:a5:a6:aa:6e:89:c1:1a:d6:b0:
                    bd:11:80:13:a7:fb:e3:b1:3e:a5:46:a6:8c:68:e2:
                    b1:0f:32:64:2d:17:e4:7b:75:b3:9d:ec:96:2c:bd:
                    00:70:e9:39:45:95:70:22:ce:a1:00:8f:fd:8f:32:
                    0e:39:23:13:55:56:88:bd:58:ec:b9:42:9d:87:c0:
                    55:f6:3c:ec:34:43:f3:5b:68:20:e2:e3:14:d0:02:
                    c5:e1:b4:d9:0b:e0:ce:0d:09:30:a8:7c:d6:c7:a2:
                    65:f4:8b:6e:af:03:81:ea:43:00:15:13:b3:c5:98:
                    a4:df:ee:e7:6f:e4:74:cf:bf:51:e6:90:12:7f:aa:
                    d8:70:c3:23:c3:8c:98:1a:b0:56:8f:7c:93:e7:42:
                    43:44:20:28:b9:07:68:bc:69:9b:91:23:69:c4:a4:
                    35:91:5e:aa:9d:6d:b4:36:6c:18:a4:2d:f5:11:0f:
                    27:1a:58:e8:e3:bd:29:26:2e:14:d1:69:9e:62:df:
                    68:33:40:fd:59:e0:2f:0f:99:e2:16:07:e7:d4:67:
                    13:6a:77:b3:de:42:7d:46:be:09:3e:01:52:f0:f2:
                    59:e7:dc:f5:13:62:25:5a:69:6d:03:62:67:80:ca:
                    2a:98:b1:55:f5:e9:b6:0b:a4:6e:78:79:97:bb:f2:
                    0d:5a:27:28:67:60:34:46:5e:37:96:23:a2:93:39:
                    57:6f:89:78:8a:ec:0b:7b:b4:3a:60:d5:e3:57:12:
                    15:f7:bf:d5:d9:a8:52:1c:b9:11:f4:e0:59:7a:8b:
                    38:e8:28:53:1a:b2:eb:66:25:ec:30:f0:a3:25:de:
                    ac:4c:c3:cd:90:2a:9d:20:44:fc:70:2b:6b:7f:dd:
                    e6:97:63:f3:fe:56:5e:8c:9b:8d:b5:d8:33:f6:ec:
                    28:02:cb
                Exponent: 65537 (0x10001)
        X509v3 extensions:
            X509v3 Key Usage: critical
                Digital Signature, Certificate Sign, CRL Sign
            X509v3 Basic Constraints: critical
                CA:TRUE
            X509v3 Subject Key Identifier: 
                3D:B3:E3:F5:20:AE:B9:D3:AC:9B:14:BC:70:25:EE:0F:0A:7E:95:C9
    Signature Algorithm: sha384WithRSAEncryption
    Signature Value:
        db:89:c7:92:77:12:ca:a7:ae:93:59:64:a5:1a:bf:30:b5:47:
        75:53:8d:26:76:7a:b7:c3:99:12:ed:e7:af:a0:c7:02:e2:26:
        02:89:c8:a8:ef:07:70:17:20:c3:27:43:20:07:83:ec:63:9a:
        7c:e6:78:ee:64:64:60:e1:48:6b:eb:64:27:6d:69:7e:62:6f:
        29:4b:77:01:25:b5:b8:b0:07:08:93:58:1d:52:d7:b3:bb:71:
        9e:ad:66:44:ab:b0:ca:e6:9e:6f:a2:5d:4d:ac:f3:8d:78:0d:
        0c:b6:50:82:f3:9f:33:b9:a4:0d:fe:9f:4b:66:7e:75:b2:8e:
        64:16:30:a3:ac:ec:a6:aa:10:73:5b:3a:93:45:e0:f6:1e:e8:
        12:22:42:0b:ed:c5:51:f2:50:49:8c:a2:d9:bc:a7:65:21:27:
        d9:ce:bb:39:21:53:7e:a5:d5:af:d9:e1:95:a6:b0:2c:61:0a:
        51:a1:65:61:e4:2c:a5:43:b9:31:41:58:98:65:aa:9d:fd:fc:
        33:c6:4c:d2:b3:f1:e5:1d:34:8d:9f:c4:e6:c2:9c:4a:a1:47:
        09:a5:60:84:33:e2:56:ff:49:ce:cf:20:36:59:70:0d:b8:bb:
        ad:7c:0c:b2:d6:8a:01:32:49:5e:25:a0:49:db:31:ad:f4:2b:
        ef:e1:51:c9:74:09:99:15:57:2b:16:7a:ea:e3:5e:d5:98:00:
        ce:03:5b:8c:2b:c6:9b:01:75:4a:d0:6d:af:50:eb:74:e4:a4:
        ee:c3:8c:04:cb:89:7e:d0:76:83:df:ca:eb:b5:54:7f:3f:a3:
        93:29:48:6e:fe:72:6e:f9:c2:a8:1a:00:be:ad:83:49:0e:fa:
        3b:95:b2:5a:24:c1:90:f6:29:d8:58:7f:58:c1:e4:5d:52:10:
        a5:3e:90:ec:53:13:88:6c:6d:03:1b:fa:f6:ca:b5:09:e2:7d:
        8b:d8:3f:88:02:41:75:3a:10:c0:9c:07:f3:40:21:de:14:8f:
        83:50:d0:f0:b4:c8:8d:3b:4e:c7:19:09:e8:07:a1:fd:75:35:
        ff:0f:65:5b:dd:57:18:b8:17:c9:ed:54:7e:35:08:58:ab:28:
        7b:5a:c4:d9:12:be:45:23:fa:05:95:9c:44:d8:49:3b:2a:a2:
        e3:48:1d:4d:12:c9:91:b7:34:22:da:bf:eb:63:45:57:89:88:
        59:c5:8a:69:f8:5b:e1:93:94:d6:bb:e4:d7:0a:1e:b5:e2:49:
        64:77:7b:70:b6:a4:5b:a3:8d:24:01:2d:58:67:b8:dd:95:71:
        fe:5a:85:5d:01:f8:90:e3:0f:b9:1f:fb:87:61:b5:02:27:ba:
        16:4e:a1:b0:88:d4:bf:6d
-----BEGIN CERTIFICATE-----
MIIFdDCCA1ygAwIBAgIQf+UwA4GYp199F8APJCyr8zANBgkqhkiG9w0BAQwFADBU
MQswCQYDVQQGEwJCRTEZMBcGA1UEChMQR2xvYmFsU2lnbiBudi1zYTEqMCgGA1UE
AxMhR2xvYmFsU2lnbiBWZXJpZmllZCBNYXJrIFJvb3QgUjQyMB4XDTIzMTExNTAz
NDA1MloXDTQyMTExNTAwMDAwMFowVDELMAkGA1UEBhMCQkUxGTAXBgNVBAoTEEds
b2JhbFNpZ24gbnYtc2ExKjAoBgNVBAMTIUdsb2JhbFNpZ24gVmVyaWZpZWQgTWFy
ayBSb290IFI0MjCCAiIwDQYJKoZIhvcNAQEBBQADggIPADCCAgoCggIBANzqTcvu
bRbqX0CzP7sZbHfd1usqWOPrHzoLvbZTnJqt9WgBwQwcGEFl8rmIcOss7XmewAqj
oCx7PQp1FJ+/o/yGezMbnPCglAVwWptUOMIa7UJ/8qrV50/qQSRN8s8MAcnhj3Ab
Ja/mVjlMHzjYCo0O+jc24uHlEHcIo3vJPsP2Sy9HwcMH4wB2rQ4xDN7kAn5NmqXI
xAvSnJ2KGrZsoNx8MGAfX5dl0ACOpaaqbonBGtawvRGAE6f747E+pUamjGjisQ8y
ZC0X5Ht1s53sliy9AHDpOUWVcCLOoQCP/Y8yDjkjE1VWiL1Y7LlCnYfAVfY87DRD
81toIOLjFNACxeG02Qvgzg0JMKh81seiZfSLbq8DgepDABUTs8WYpN/u52/kdM+/
UeaQEn+q2HDDI8OMmBqwVo98k+dCQ0QgKLkHaLxpm5EjacSkNZFeqp1ttDZsGKQt
9REPJxpY6OO9KSYuFNFpnmLfaDNA/VngLw+Z4hYH59RnE2p3s95CfUa+CT4BUvDy
Wefc9RNiJVppbQNiZ4DKKpixVfXptgukbnh5l7vyDVonKGdgNEZeN5YjopM5V2+J
eIrsC3u0OmDV41cSFfe/1dmoUhy5EfTgWXqLOOgoUxqy62Yl7DDwoyXerEzDzZAq
nSBE/HAra3/d5pdj8/5WXoybjbXYM/bsKALLAgMBAAGjQjBAMA4GA1UdDwEB/wQE
AwIBhjAPBgNVHRMBAf8EBTADAQH/MB0GA1UdDgQWBBQ9s+P1IK6506ybFLxwJe4P
Cn6VyTANBgkqhkiG9w0BAQwFAAOCAgEA24nHkncSyqeuk1lkpRq/MLVHdVONJnZ6
t8OZEu3nr6DHAuImAonIqO8HcBcgwydDIAeD7GOafOZ47mRkYOFIa+tkJ21pfmJv
KUt3ASW1uLAHCJNYHVLXs7txnq1mRKuwyuaeb6JdTazzjXgNDLZQgvOfM7mkDf6f
S2Z+dbKOZBYwo6zspqoQc1s6k0Xg9h7oEiJCC+3FUfJQSYyi2bynZSEn2c67OSFT
fqXVr9nhlaawLGEKUaFlYeQspUO5MUFYmGWqnf38M8ZM0rPx5R00jZ/E5sKcSqFH
CaVghDPiVv9Jzs8gNllwDbi7rXwMstaKATJJXiWgSdsxrfQr7+FRyXQJmRVXKxZ6
6uNe1ZgAzgNbjCvGmwF1StBtr1DrdOSk7sOMBMuJftB2g9/K67VUfz+jkylIbv5y
bvnCqBoAvq2DSQ76O5WyWiTBkPYp2Fh/WMHkXVIQpT6Q7FMTiGxtAxv69sq1CeJ9
i9g/iAJBdToQwJwH80Ah3hSPg1DQ8LTIjTtOxxkJ6Aeh/XU1/w9lW91XGLgXye1U
fjUIWKsoe1rE2RK+RSP6BZWcRNhJOyqi40gdTRLJkbc0Itq/62NFV4mIWcWKafhb
4ZOU1rvk1woeteJJZHd7cLakW6ONJAEtWGe43ZVx/lqFXQH4kOMPuR/7h2G1Aie6
Fk6hsIjUv20=
-----END CERTIFICATE-----
