Certificate:
    Data:
        Version: 3 (0x2)
        Serial Number:
            b3:d2:27:db:33:08:5e:17:00:00:00:00:51:d3:93:1f
        Signature Algorithm: sha256WithRSAEncryption
        Issuer: C = US, O = "Entrust, Inc.", OU = See www.entrust.net/legal-terms, OU = "(c) 2009 Entrust, Inc. - for authorized use only", CN = Entrust Root Certification Authority - G2
        Validity
            Not Before: Apr 16 15:45:43 2019 GMT
            Not After : Nov 16 16:15:43 2030 GMT
        Subject: C = US, O = "Entrust, Inc.", OU = See www.entrust.net/legal-terms, OU = "(c) 2018 Entrust, Inc. - for authorized use only", CN = Entrust Certificate Authority - VMC1
        Subject Public Key Info:
            Public Key Algorithm: rsaEncryption
                Public-Key: (2048 bit)
                Modulus:
                    00:ea:ce:13:b9:cf:b2:0c:67:59:a7:5b:cf:47:f4:
                    0f:e6:ed:cf:2a:31:7e:55:e9:6e:b2:0b:ab:7e:7c:
                    5c:95:27:e8:c4:6a:93:59:bd:06:62:b7:e4:6e:db:
                    7f:49:b2:16:b7:b2:c7:ad:11:c5:c8:fe:4a:f3:51:
                    b2:b6:8c:77:a1:54:cc:3b:8e:71:c7:ca:dc:fc:db:
                    52:4b:4c:28:fc:4c:04:58:7b:47:8f:d9:48:d0:4c:
                    4e:4a:36:7e:7e:e3:85:13:dd:15:6f:64:d0:df:ac:
                    48:ab:47:c2:1b:b4:c7:0f:2a:cc:68:3c:a0:54:49:
                    80:98:29:c5:9b:f5:cf:3a:e7:cb:8d:c4:22:e4:62:
                    a3:34:20:83:62:77:67:36:38:a2:f6:b4:b3:f0:4c:
                    fd:22:ea:76:c1:a8:f8:97:3a:f1:2e:e3:b0:8e:8a:
                    ef:32:af:c3:41:41:dd:3e:92:59:8c:6b:05:cd:69:
                    1a:c6:2f:96:66:c2:ac:3b:37:00:fd:09:72:eb:24:
                    7b:51:a5:2f:31:54:a5:49:2b:bf:1e:27:6b:d8:b8:
                    b7:b5:e1:c5:57:30:cf:70:2e:31:16:d4:e2:71:c3:
                    21:cd:30:b4:b1:bd:16:6d:b8:c4:1d:f5:91:2a:b2:
                    6e:da:71:10:60:bf:a0:dc:9b:84:25:a3:40:3a:98:
                    5b:9f
                Exponent: 65537 (0x10001)
        X509v3 extensions:
            X509v3 Key Usage: critical
                Digital Signature, Certificate Sign, CRL Sign
            X509v3 Basic Constraints: critical
                CA:TRUE, pathlen:0
            X509v3 Extended Key Usage: 
                Brand Indicator for Message Identification
            X509v3 Certificate Policies: 
                Policy: X509v3 Any Policy
                  CPS: http://www.entrust.net/rpa
            Authority Information Access: 
                OCSP - URI:http://ocsp.entrust.net
            X509v3 CRL Distribution Points: 
                Full Name:
                  URI:http://crl.entrust.net/g2ca.crl
            X509v3 Subject Key Identifier: 
                8B:B6:39:76:D0:34:90:A6:3F:62:E1:64:EA:3E:BC:F4:7C:46:A1:73
            X509v3 Authority Key Identifier: 
                6A:72:26:7A:D0:1E:EF:7D:E7:3B:69:51:D4:6C:8D:9F:90:12:66:AB
    Signature Algorithm: sha256WithRSAEncryption
    Signature Value:
        69:84:ab:d7:4f:a2:43:b6:6b:90:02:18:07:f2:76:79:5e:8f:
        4b:97:29:a7:0b:0e:5f:88:6a:50:27:5d:eb:b2:bd:80:d8:99:
        e5:d5:9f:29:a1:3c:2c:90:ce:f5:90:82:26:45:cb:65:62:cd:
        90:e7:64:a0:bd:dd:1e:83:1b:dc:3c:42:d0:48:be:c1:30:63:
        d4:e3:60:62:8d:60:84:be:70:fc:19:9b:d4:ff:5c:79:a4:e8:
        34:17:64:a2:11:0e:72:72:60:bd:00:3a:f6:12:c9:1c:6e:a3:
        21:d9:03:0e:3a:53:55:e0:97:c5:8e:d5:18:d4:90:93:be:23:
        96:27:b3:b6:f7:0b:04:69:53:22:63:a1:1d:ae:c3:75:86:3a:
        a6:c1:ac:5f:cd:35:62:90:ce:66:fa:38:14:29:6a:8a:dd:4f:
        b9:ea:8b:ad:31:6c:e2:39:fc:5c:a6:8f:94:af:ae:e1:4e:09:
        5c:7d:35:0a:21:13:13:1a:10:cc:54:56:f0:5b:93:b6:8c:83:
        65:06:31:ad:e7:20:1b:84:8f:cb:9d:1c:0f:bc:1f:7d:2c:59:
        08:48:a5:f9:d1:cd:8d:0c:49:0e:cc:43:e9:98:36:8f:ae:c5:
        25:d7:97:af:11:a8:7a:6a:6b:01:7e:94:22:59:16:ca:a4:32:
        ca:b3:59:05
-----BEGIN CERTIFICATE-----
MIIFJzCCBA+gAwIBAgIRALPSJ9szCF4XAAAAAFHTkx8wDQYJKoZIhvcNAQELBQAw
gb4xCzAJBgNVBAYTAlVTMRYwFAYDVQQKEw1FbnRydXN0LCBJbmMuMSgwJgYDVQQL
Ex9TZWUgd3d3LmVudHJ1c3QubmV0L2xlZ2FsLXRlcm1zMTkwNwYDVQQLEzAoYykg
MjAwOSBFbnRydXN0LCBJbmMuIC0gZm9yIGF1dGhvcml6ZWQgdXNlIG9ubHkxMjAw
BgNVBAMTKUVudHJ1c3QgUm9vdCBDZXJ0aWZpY2F0aW9uIEF1dGhvcml0eSAtIEcy
MB4XDTE5MDQxNjE1NDU0M1oXDTMwMTExNjE2MTU0M1owgbkxCzAJBgNVBAYTAlVT
MRYwFAYDVQQKEw1FbnRydXN0LCBJbmMuMSgwJgYDVQQLEx9TZWUgd3d3LmVudHJ1
c3QubmV0L2xlZ2FsLXRlcm1zMTkwNwYDVQQLEzAoYykgMjAxOCBFbnRydXN0LCBJ
bmMuIC0gZm9yIGF1dGhvcml6ZWQgdXNlIG9ubHkxLTArBgNVBAMTJEVudHJ1c3Qg
Q2VydGlmaWNhdGUgQXV0aG9yaXR5IC0gVk1DMTCCASIwDQYJKoZIhvcNAQEBBQAD
ggEPADCCAQoCggEBAOrOE7nPsgxnWadbz0f0D+btzyoxflXpbrILq358XJUn6MRq
k1m9BmK35G7bf0myFreyx60Rxcj+SvNRsraMd6FUzDuOccfK3PzbUktMKPxMBFh7
R4/ZSNBMTko2fn7jhRPdFW9k0N+sSKtHwhu0xw8qzGg8oFRJgJgpxZv1zzrny43E
IuRiozQgg2J3ZzY4ova0s/BM/SLqdsGo+Jc68S7jsI6K7zKvw0FB3T6SWYxrBc1p
GsYvlmbCrDs3AP0Jcuske1GlLzFUpUkrvx4na9i4t7XhxVcwz3AuMRbU4nHDIc0w
tLG9Fm24xB31kSqybtpxEGC/oNybhCWjQDqYW58CAwEAAaOCASEwggEdMA4GA1Ud
DwEB/wQEAwIBhjASBgNVHRMBAf8ECDAGAQH/AgEAMBMGA1UdJQQMMAoGCCsGAQUF
BwMfMDsGA1UdIAQ0MDIwMAYEVR0gADAoMCYGCCsGAQUFBwIBFhpodHRwOi8vd3d3
LmVudHJ1c3QubmV0L3JwYTAzBggrBgEFBQcBAQQnMCUwIwYIKwYBBQUHMAGGF2h0
dHA6Ly9vY3NwLmVudHJ1c3QubmV0MDAGA1UdHwQpMCcwJaAjoCGGH2h0dHA6Ly9j
cmwuZW50cnVzdC5uZXQvZzJjYS5jcmwwHQYDVR0OBBYEFIu2OXbQNJCmP2LhZOo+
vPR8RqFzMB8GA1UdIwQYMBaAFGpyJnrQHu995ztpUdRsjZ+QEmarMA0GCSqGSIb3
DQEBCwUAA4IBAQBphKvXT6JDtmuQAhgH8nZ5Xo9LlymnCw5fiGpQJ13rsr2A2Jnl
1Z8poTwskM71kIImRctlYs2Q52Sgvd0egxvcPELQSL7BMGPU42BijWCEvnD8GZvU
/1x5pOg0F2SiEQ5ycmC9ADr2EskcbqMh2QMOOlNV4JfFjtUY1JCTviOWJ7O29wsE
aVMiY6EdrsN1hjqmwaxfzTVikM5m+jgUKWqK3U+56outMWziOfxcpo+Ur67hTglc
fTUKIRMTGhDMVFbwW5O2jINlBjGt5yAbhI/LnRwPvB99LFkISKX50c2NDEkOzEPp
mDaPrsUl15evEah6amsBfpQiWRbKpDLKs1kF
-----END CERTIFICATE-----
