Certificate:
    Data:
        Version: 3 (0x2)
        Serial Number:
            a8:42:a0:00:af:8d:bf:79
        Signature Algorithm: sha1WithRSAEncryption
        Issuer: C=NZ, ST=Test State or Province, O=Organization Name, OU=Organizational Unit Name, CN=Test CA
        Validity
            Not Before: Aug 17 03:32:28 2011 GMT
            Not After : Aug 14 03:32:28 2021 GMT
        Subject: C=NZ, ST=Test State or Province, O=Organization Name, OU=Organizational Unit Name, CN=Test Client
        Subject Public Key Info:
            Public Key Algorithm: rsaEncryption
            RSA Public Key: (1024 bit)
                Modulus (1024 bit):
                    00:bf:29:fe:d2:bd:b2:45:5e:f7:77:df:5a:0e:de:
                    0a:ec:f3:03:80:0d:1e:a3:99:56:56:94:0a:a7:22:
                    79:ea:ab:16:fb:73:33:9e:3b:15:bd:aa:e0:69:3e:
                    56:69:da:81:bc:b2:6c:6f:f2:55:80:5d:58:3c:20:
                    23:dd:18:48:37:c2:f4:1a:ca:56:5f:db:5f:41:3e:
                    74:fa:d6:50:73:49:68:c1:47:8c:a1:90:c0:91:b1:
                    60:9e:81:95:cc:01:7e:3e:ef:f6:6e:3d:5d:ad:b6:
                    45:1c:ac:f5:d2:c6:3a:bd:2a:a2:f5:3b:fe:a9:83:
                    85:da:29:77:0e:61:2c:6c:4f
                Exponent: 65537 (0x10001)
        X509v3 extensions:
            Netscape Cert Type: 
                SSL Client
            X509v3 Subject Alternative Name: 
                DNS:www.example.com, DNS:www2.example.com
    Signature Algorithm: sha1WithRSAEncryption
        39:65:b6:9b:7c:3b:53:68:5f:f7:cc:cb:5a:20:bd:c8:e8:ce:
        70:aa:a7:b3:6a:c2:5c:59:32:4d:3f:0c:29:ca:8c:7d:40:16:
        bb:89:bc:de:5a:f7:9d:99:2d:43:a1:97:1e:f1:38:e9:2c:98:
        78:c7:69:ec:66:c6:a9:4b:34:f9:9c:7a:d7:9c:7a:e3:26:36:
        94:27:32:c5:4f:95:11:8b:4f:a8:a3:e8:45:40:f3:52:5c:17:
        d4:7f:87:f9:8b:d7:a9:af:50:60:45:4f:32:cd:69:c7:46:57:
        b9:f9:28:65:8a:3e:69:37:f6:92:8e:53:6e:93:6c:ea:67:98:
        69:fc
-----BEGIN CERTIFICATE-----
MIICxDCCAi2gAwIBAgIJAKhCoACvjb95MA0GCSqGSIb3DQEBBQUAMH8xCzAJBgNV
BAYTAk5aMR8wHQYDVQQIExZUZXN0IFN0YXRlIG9yIFByb3ZpbmNlMRowGAYDVQQK
ExFPcmdhbml6YXRpb24gTmFtZTEhMB8GA1UECxMYT3JnYW5pemF0aW9uYWwgVW5p
dCBOYW1lMRAwDgYDVQQDEwdUZXN0IENBMB4XDTExMDgxNzAzMzIyOFoXDTIxMDgx
NDAzMzIyOFowgYMxCzAJBgNVBAYTAk5aMR8wHQYDVQQIExZUZXN0IFN0YXRlIG9y
IFByb3ZpbmNlMRowGAYDVQQKExFPcmdhbml6YXRpb24gTmFtZTEhMB8GA1UECxMY
T3JnYW5pemF0aW9uYWwgVW5pdCBOYW1lMRQwEgYDVQQDEwtUZXN0IENsaWVudDCB
nzANBgkqhkiG9w0BAQEFAAOBjQAwgYkCgYEAvyn+0r2yRV73d99aDt4K7PMDgA0e
o5lWVpQKpyJ56qsW+3MznjsVvargaT5WadqBvLJsb/JVgF1YPCAj3RhIN8L0GspW
X9tfQT50+tZQc0lowUeMoZDAkbFgnoGVzAF+Pu/2bj1drbZFHKz10sY6vSqi9Tv+
qYOF2il3DmEsbE8CAwEAAaNDMEEwEQYJYIZIAYb4QgEBBAQDAgeAMCwGA1UdEQQl
MCOCD3d3dy5leGFtcGxlLmNvbYIQd3d3Mi5leGFtcGxlLmNvbTANBgkqhkiG9w0B
AQUFAAOBgQA5ZbabfDtTaF/3zMtaIL3I6M5wqqezasJcWTJNPwwpyox9QBa7ibze
WvedmS1DoZce8TjpLJh4x2nsZsapSzT5nHrXnHrjJjaUJzLFT5URi0+oo+hFQPNS
XBfUf4f5i9epr1BgRU8yzWnHRle5+Shlij5pN/aSjlNuk2zqZ5hp/A==
-----END CERTIFICATE-----
