Certificate:
    Data:
        Version: 3 (0x2)
        Serial Number:
            a8:42:a0:00:af:8d:bf:77
        Signature Algorithm: sha1WithRSAEncryption
        Issuer: C=NZ, ST=Test State or Province, O=Organization Name, OU=Organizational Unit Name, CN=Test CA
        Validity
            Not Before: Aug 10 01:58:06 2010 GMT
            Not After : Aug 10 01:58:06 2011 GMT
        Subject: C=NZ, ST=Test State or Province, O=Organization Name, OU=Organizational Unit Name, CN=Test Client
        Subject Public Key Info:
            Public Key Algorithm: rsaEncryption
            RSA Public Key: (1024 bit)
                Modulus (1024 bit):
                    00:9d:bb:1e:0b:70:0e:8e:b5:73:dc:65:ab:85:a0:
                    be:d9:3b:28:f0:e9:d3:98:8f:68:e9:42:5a:c7:a0:
                    ac:33:b6:5e:a5:ae:cf:32:6d:8a:c8:b2:f9:1c:86:
                    64:d4:61:15:b6:b8:e4:eb:9a:f4:68:7b:0d:f8:67:
                    7f:b6:55:48:fa:60:69:2d:a1:08:33:3d:df:73:d5:
                    5c:70:9a:38:d7:e8:aa:cd:f4:fe:78:29:c0:b5:25:
                    86:67:c9:5b:03:7f:bb:0f:c1:26:34:ad:26:b9:99:
                    9b:56:02:ca:9a:16:d2:80:ff:39:3e:bf:99:a1:04:
                    bb:55:c5:c9:c6:d0:73:ea:39
                Exponent: 65537 (0x10001)
        X509v3 extensions:
            Netscape Cert Type: 
                SSL Client
            X509v3 Subject Alternative Name: 
                DNS:www.example.com, DNS:www2.example.com
    Signature Algorithm: sha1WithRSAEncryption
        22:6a:a8:b7:40:9f:d8:51:58:d2:3d:cb:c0:6f:e9:32:aa:4a:
        0a:cc:2f:35:5a:ef:ed:38:43:60:a6:69:84:44:81:29:c7:bd:
        a0:81:84:28:9e:51:83:b2:e9:e0:4b:a3:ec:c3:05:97:e5:43:
        0e:e8:77:1d:92:c0:57:b6:7a:f4:84:25:f8:f0:81:a8:f7:5d:
        ed:07:f6:a5:78:2d:f6:57:25:5f:f2:39:dc:80:76:be:e9:c3:
        55:6f:6a:7a:80:c7:00:bd:21:e8:7d:e1:0b:42:48:a3:d5:92:
        26:e2:ac:18:81:50:0c:8c:f3:c4:ec:61:75:5c:b7:43:e1:69:
        0a:ae
-----BEGIN CERTIFICATE-----
MIICxDCCAi2gAwIBAgIJAKhCoACvjb93MA0GCSqGSIb3DQEBBQUAMH8xCzAJBgNV
BAYTAk5aMR8wHQYDVQQIExZUZXN0IFN0YXRlIG9yIFByb3ZpbmNlMRowGAYDVQQK
ExFPcmdhbml6YXRpb24gTmFtZTEhMB8GA1UECxMYT3JnYW5pemF0aW9uYWwgVW5p
dCBOYW1lMRAwDgYDVQQDEwdUZXN0IENBMB4XDTEwMDgxMDAxNTgwNloXDTExMDgx
MDAxNTgwNlowgYMxCzAJBgNVBAYTAk5aMR8wHQYDVQQIExZUZXN0IFN0YXRlIG9y
IFByb3ZpbmNlMRowGAYDVQQKExFPcmdhbml6YXRpb24gTmFtZTEhMB8GA1UECxMY
T3JnYW5pemF0aW9uYWwgVW5pdCBOYW1lMRQwEgYDVQQDEwtUZXN0IENsaWVudDCB
nzANBgkqhkiG9w0BAQEFAAOBjQAwgYkCgYEAnbseC3AOjrVz3GWrhaC+2Tso8OnT
mI9o6UJax6CsM7Zepa7PMm2KyLL5HIZk1GEVtrjk65r0aHsN+Gd/tlVI+mBpLaEI
Mz3fc9VccJo41+iqzfT+eCnAtSWGZ8lbA3+7D8EmNK0muZmbVgLKmhbSgP85Pr+Z
oQS7VcXJxtBz6jkCAwEAAaNDMEEwEQYJYIZIAYb4QgEBBAQDAgeAMCwGA1UdEQQl
MCOCD3d3dy5leGFtcGxlLmNvbYIQd3d3Mi5leGFtcGxlLmNvbTANBgkqhkiG9w0B
AQUFAAOBgQAiaqi3QJ/YUVjSPcvAb+kyqkoKzC81Wu/tOENgpmmERIEpx72ggYQo
nlGDsungS6PswwWX5UMO6HcdksBXtnr0hCX48IGo913tB/aleC32VyVf8jncgHa+
6cNVb2p6gMcAvSHofeELQkij1ZIm4qwYgVAMjPPE7GF1XLdD4WkKrg==
-----END CERTIFICATE-----
