Certificate:
    Data:
        Version: 3 (0x2)
        Serial Number:
            a8:42:a0:00:af:8d:bf:78
        Signature Algorithm: sha1WithRSAEncryption
        Issuer: C=NZ, ST=Test State or Province, O=Organization Name, OU=Organizational Unit Name, CN=Test CA
        Validity
            Not Before: Aug 17 03:31:56 2011 GMT
            Not After : Aug 14 03:31:56 2021 GMT
        Subject: C=NZ, ST=Test State or Province, O=Organization Name, OU=Organizational Unit Name, CN=Test CA
        Subject Public Key Info:
            Public Key Algorithm: rsaEncryption
            RSA Public Key: (1024 bit)
                Modulus (1024 bit):
                    00:c1:cc:8f:34:4b:d5:82:63:93:41:fc:31:b1:b7:
                    b1:9b:1b:0f:b9:4d:1e:81:62:56:8e:30:50:10:5f:
                    1b:dd:71:fd:94:02:0d:8e:c1:21:0c:bd:a9:54:db:
                    25:b5:d3:53:f2:94:f9:bb:17:b7:ea:9e:ca:5a:5d:
                    f3:93:a6:72:a8:98:87:7f:db:cb:94:19:8c:83:f3:
                    b3:dc:4a:f5:df:75:c8:52:b0:9f:db:cc:c6:4c:e9:
                    f6:0b:54:30:86:9c:8f:9a:b7:d0:0b:44:c1:8e:f7:
                    7b:2b:03:50:aa:60:2c:98:2e:02:74:26:c2:9a:66:
                    e8:09:11:d0:17:62:7e:ff:73
                Exponent: 65537 (0x10001)
        X509v3 extensions:
            X509v3 Subject Key Identifier: 
                33:D8:CD:E9:30:89:9A:9D:D0:8E:40:C1:B6:39:7A:5B:80:70:56:01
            X509v3 Authority Key Identifier: 
                keyid:33:D8:CD:E9:30:89:9A:9D:D0:8E:40:C1:B6:39:7A:5B:80:70:56:01
                DirName:/C=NZ/ST=Test State or Province/O=Organization Name/OU=Organizational Unit Name/CN=Test CA
                serial:A8:42:A0:00:AF:8D:BF:78

            X509v3 Basic Constraints: critical
                CA:TRUE
    Signature Algorithm: sha1WithRSAEncryption
        8f:d4:f2:26:7f:25:70:35:da:08:67:ba:55:ac:f5:69:54:a8:
        4f:c5:66:fe:03:6a:d1:a8:8f:bd:e8:46:95:da:97:ba:e2:72:
        49:40:6b:05:b6:2e:c1:9e:00:d8:41:1e:29:44:a0:dc:b1:dc:
        36:99:ab:e4:e4:27:b9:d6:08:8b:f9:57:a4:91:8b:7c:5e:d1:
        87:ae:d4:0d:70:98:a7:e8:84:00:ee:e0:f3:aa:54:ad:56:83:
        01:c1:60:d8:56:47:85:64:82:29:60:e1:cb:22:c5:f2:48:d4:
        f5:41:7e:2f:1a:81:05:7c:0e:2f:35:e5:1e:63:a7:14:56:4f:
        92:ff
-----BEGIN CERTIFICATE-----
MIIDZjCCAs+gAwIBAgIJAKhCoACvjb94MA0GCSqGSIb3DQEBBQUAMH8xCzAJBgNV
BAYTAk5aMR8wHQYDVQQIExZUZXN0IFN0YXRlIG9yIFByb3ZpbmNlMRowGAYDVQQK
ExFPcmdhbml6YXRpb24gTmFtZTEhMB8GA1UECxMYT3JnYW5pemF0aW9uYWwgVW5p
dCBOYW1lMRAwDgYDVQQDEwdUZXN0IENBMB4XDTExMDgxNzAzMzE1NloXDTIxMDgx
NDAzMzE1NlowfzELMAkGA1UEBhMCTloxHzAdBgNVBAgTFlRlc3QgU3RhdGUgb3Ig
UHJvdmluY2UxGjAYBgNVBAoTEU9yZ2FuaXphdGlvbiBOYW1lMSEwHwYDVQQLExhP
cmdhbml6YXRpb25hbCBVbml0IE5hbWUxEDAOBgNVBAMTB1Rlc3QgQ0EwgZ8wDQYJ
KoZIhvcNAQEBBQADgY0AMIGJAoGBAMHMjzRL1YJjk0H8MbG3sZsbD7lNHoFiVo4w
UBBfG91x/ZQCDY7BIQy9qVTbJbXTU/KU+bsXt+qeylpd85OmcqiYh3/by5QZjIPz
s9xK9d91yFKwn9vMxkzp9gtUMIacj5q30AtEwY73eysDUKpgLJguAnQmwppm6AkR
0Bdifv9zAgMBAAGjgekwgeYwHQYDVR0OBBYEFDPYzekwiZqd0I5AwbY5eluAcFYB
MIGzBgNVHSMEgaswgaiAFDPYzekwiZqd0I5AwbY5eluAcFYBoYGEpIGBMH8xCzAJ
BgNVBAYTAk5aMR8wHQYDVQQIExZUZXN0IFN0YXRlIG9yIFByb3ZpbmNlMRowGAYD
VQQKExFPcmdhbml6YXRpb24gTmFtZTEhMB8GA1UECxMYT3JnYW5pemF0aW9uYWwg
VW5pdCBOYW1lMRAwDgYDVQQDEwdUZXN0IENBggkAqEKgAK+Nv3gwDwYDVR0TAQH/
BAUwAwEB/zANBgkqhkiG9w0BAQUFAAOBgQCP1PImfyVwNdoIZ7pVrPVpVKhPxWb+
A2rRqI+96EaV2pe64nJJQGsFti7BngDYQR4pRKDcsdw2mavk5Ce51giL+VekkYt8
XtGHrtQNcJin6IQA7uDzqlStVoMBwWDYVkeFZIIpYOHLIsXySNT1QX4vGoEFfA4v
NeUeY6cUVk+S/w==
-----END CERTIFICATE-----
