Certificate:
    Data:
        Version: 3 (0x2)
        Serial Number:
            a8:42:a0:00:af:8d:bf:74
        Signature Algorithm: sha1WithRSAEncryption
        Issuer: C=NZ, ST=Test State or Province, O=Organization Name, OU=Organizational Unit Name, CN=Test CA
        Validity
            Not Before: Aug  9 03:36:01 2010 GMT
            Not After : Aug  9 03:36:01 2011 GMT
        Subject: C=NZ, ST=Test State or Province, O=Organization Name, OU=Organizational Unit Name, CN=Test Server
        Subject Public Key Info:
            Public Key Algorithm: rsaEncryption
            RSA Public Key: (1024 bit)
                Modulus (1024 bit):
                    00:da:72:1f:14:70:6d:57:3b:b5:80:81:a3:9c:a6:
                    ad:4f:75:88:5e:04:83:7d:b2:a0:d2:8b:f6:ef:9d:
                    b1:e1:80:96:c6:29:db:34:37:f8:b9:ef:dc:96:e6:
                    d5:7a:a1:11:85:46:b8:97:1d:4c:f1:8d:cf:47:2c:
                    5d:dd:87:c4:73:92:57:e1:7e:98:09:34:af:2b:f1:
                    c7:7c:41:4e:21:93:8d:10:41:1c:d6:f7:7e:1a:72:
                    36:0f:19:32:ab:5f:81:5d:c3:65:38:5b:02:ce:a1:
                    7c:34:68:fd:33:52:8f:92:b0:29:65:b0:fb:cb:93:
                    7a:5b:e9:a9:28:7a:58:8f:6b
                Exponent: 65537 (0x10001)
        X509v3 extensions:
            Netscape Cert Type: 
                SSL Server
    Signature Algorithm: sha1WithRSAEncryption
        82:0e:f6:7a:6b:55:af:7e:55:ac:a5:76:9a:7c:c5:23:9a:53:
        16:f9:5e:78:3e:f0:da:35:aa:8b:ee:6f:24:41:60:d3:04:46:
        4c:40:c3:74:2d:61:73:1d:73:2b:3d:6b:9b:7e:29:e2:a0:89:
        97:c3:10:6a:43:3d:f6:90:0b:46:9e:2b:ac:58:8d:5d:89:ec:
        40:4c:13:6d:15:73:83:fc:c8:62:01:8b:f9:1c:1d:ad:c1:f5:
        70:29:17:04:73:2a:8b:85:d9:24:e1:9f:2c:0b:ae:f6:66:a8:
        8f:ec:85:b9:45:94:06:e3:5a:4b:d8:d3:7c:8f:11:30:3b:ea:
        99:c6
-----BEGIN CERTIFICATE-----
MIICljCCAf+gAwIBAgIJAKhCoACvjb90MA0GCSqGSIb3DQEBBQUAMH8xCzAJBgNV
BAYTAk5aMR8wHQYDVQQIExZUZXN0IFN0YXRlIG9yIFByb3ZpbmNlMRowGAYDVQQK
ExFPcmdhbml6YXRpb24gTmFtZTEhMB8GA1UECxMYT3JnYW5pemF0aW9uYWwgVW5p
dCBOYW1lMRAwDgYDVQQDEwdUZXN0IENBMB4XDTEwMDgwOTAzMzYwMVoXDTExMDgw
OTAzMzYwMVowgYMxCzAJBgNVBAYTAk5aMR8wHQYDVQQIExZUZXN0IFN0YXRlIG9y
IFByb3ZpbmNlMRowGAYDVQQKExFPcmdhbml6YXRpb24gTmFtZTEhMB8GA1UECxMY
T3JnYW5pemF0aW9uYWwgVW5pdCBOYW1lMRQwEgYDVQQDEwtUZXN0IFNlcnZlcjCB
nzANBgkqhkiG9w0BAQEFAAOBjQAwgYkCgYEA2nIfFHBtVzu1gIGjnKatT3WIXgSD
fbKg0ov2752x4YCWxinbNDf4ue/clubVeqERhUa4lx1M8Y3PRyxd3YfEc5JX4X6Y
CTSvK/HHfEFOIZONEEEc1vd+GnI2Dxkyq1+BXcNlOFsCzqF8NGj9M1KPkrApZbD7
y5N6W+mpKHpYj2sCAwEAAaMVMBMwEQYJYIZIAYb4QgEBBAQDAgZAMA0GCSqGSIb3
DQEBBQUAA4GBAIIO9nprVa9+Vayldpp8xSOaUxb5Xng+8No1qovubyRBYNMERkxA
w3QtYXMdcys9a5t+KeKgiZfDEGpDPfaQC0aeK6xYjV2J7EBME20Vc4P8yGIBi/kc
Ha3B9XApFwRzKouF2SThnywLrvZmqI/shblFlAbjWkvY03yPETA76pnG
-----END CERTIFICATE-----
