(dp0
S'b'
p1
S'something'
p2
sS'a'
p3
(lp4
I1
aI2
aS'one'
p5
aS'two'
p6
a(dp7
S'foo'
p8
S'bar'
p9
sS'quirka'
p10
(S'f'
p11
S'l'
p12
S'e'
p13
g13
tp14
sas.(dp0
S'b'
p1
S'something'
p2
sS'a'
p3
(lp4
I1
aI2
aS'one'
p5
aS'two'
p6
a(dp7
S'foo'
p8
S'bar'
p9
sS'quirka'
p10
(S'f'
p11
S'l'
p12
S'e'
p13
g13
tp14
sas.