(dp0
S'a'
p1
(lp2
I1
aI2
aS'one'
p3
aS'two'
p4
a(dp5
S'foo'
p6
S'bar'
p7
sS'quirka'
p8
(lp9
S'f'
p10
aS'l'
p11
aS'e'
p12
assS'b'
p13
S'something'
p14
s.(dp15
S'a'
p16
(lp17
I1
aI2
aS'one'
p18
aS'two'
p19
a(dp20
S'foo'
p21
S'bar'
p22
sS'quirka'
p23
(lp24
S'f'
p25
aS'l'
p26
aS'e'
p27
assS'b'
p28
S'something'
p29
s.