Certificate:
    Data:
        Version: 3 (0x2)
        Serial Number: 1 (0x1)
        Signature Algorithm: md5WithRSAEncryption
        Issuer: C=US, CN=Dummy localhost CA
        Validity
            Not Before: Sep 11 16:23:02 2003 GMT
            Not After : Sep 10 16:23:02 2004 GMT
        Subject: C=US, CN=localhost
        Subject Public Key Info:
            Public Key Algorithm: rsaEncryption
            RSA Public Key: (1024 bit)
                Modulus (1024 bit):
                    00:dc:d4:01:c6:2f:76:69:33:37:51:e3:e2:d2:b9:
                    38:22:6d:ac:5d:b3:e9:b5:ba:01:cc:6c:7e:35:ab:
                    63:cd:5c:a1:d4:56:7c:59:49:22:03:e7:cb:39:ab:
                    dc:4e:ff:8d:e6:86:74:68:0d:a4:ce:6b:89:f0:27:
                    02:ad:2c:8b:17:17:e2:67:78:08:29:10:7d:3a:3c:
                    82:08:75:7e:4c:f5:f1:0a:15:83:a1:42:22:7a:29:
                    d5:64:85:c2:b6:8e:62:d5:3c:fd:a0:0b:b4:ab:c5:
                    c6:0f:b3:60:49:07:cd:bc:52:24:bf:30:ba:1e:41:
                    96:c9:cf:30:57:80:5f:42:37
                Exponent: 65537 (0x10001)
        X509v3 extensions:
            X509v3 Basic Constraints: 
            CA:FALSE
            Netscape Cert Type: 
            SSL Server
            Netscape Comment: 
            TinyCA Generated Certificate
            X509v3 Subject Key Identifier: 
            17:12:05:25:F4:25:7A:83:0A:A2:EA:B3:E1:20:09:02:70:06:D1:48
            X509v3 Authority Key Identifier: 
            keyid:6F:08:D4:06:75:96:8F:08:48:60:BB:DC:DB:B0:8A:15:9A:58:67:2F
            DirName:/C=US/CN=Dummy localhost CA
            serial:00

            X509v3 Subject Alternative Name: 
            <EMPTY>

            X509v3 Issuer Alternative Name: 
            <EMPTY>

    Signature Algorithm: md5WithRSAEncryption
        69:bd:bd:0d:78:48:93:c6:2a:e4:b1:8e:62:fe:75:c0:f1:a7:
        da:e4:f1:a2:b5:b0:ed:a0:e8:2d:6d:6f:c8:53:74:5d:67:87:
        30:14:57:90:b1:94:a0:0c:a7:62:37:b6:33:6c:08:01:5e:8d:
        a0:e2:17:07:4d:c0:c4:08:d0:68:6c:dd:53:df:5b:af:49:61:
        7c:b7:36:f1:91:de:df:59:0e:6e:10:d6:ab:ac:af:6e:10:3e:
        58:b5:b3:ef:8a:c4:56:a6:9f:5f:d2:f7:8a:9f:9b:cb:2d:ae:
        96:13:df:a3:f2:c6:42:21:0d:1c:9f:b3:ff:4b:0a:b8:e7:e1:
        1f:db
-----BEGIN CERTIFICATE-----
MIICmTCCAgKgAwIBAgIBATANBgkqhkiG9w0BAQQFADAqMQswCQYDVQQGEwJVUzEb
MBkGA1UEAxMSRHVtbXkgbG9jYWxob3N0IENBMB4XDTAzMDkxMTE2MjMwMloXDTA0
MDkxMDE2MjMwMlowITELMAkGA1UEBhMCVVMxEjAQBgNVBAMTCWxvY2FsaG9zdDCB
nzANBgkqhkiG9w0BAQEFAAOBjQAwgYkCgYEA3NQBxi92aTM3UePi0rk4Im2sXbPp
tboBzGx+NatjzVyh1FZ8WUkiA+fLOavcTv+N5oZ0aA2kzmuJ8CcCrSyLFxfiZ3gI
KRB9OjyCCHV+TPXxChWDoUIieinVZIXCto5i1Tz9oAu0q8XGD7NgSQfNvFIkvzC6
HkGWyc8wV4BfQjcCAwEAAaOB1zCB1DAJBgNVHRMEAjAAMBEGCWCGSAGG+EIBAQQE
AwIGQDArBglghkgBhvhCAQ0EHhYcVGlueUNBIEdlbmVyYXRlZCBDZXJ0aWZpY2F0
ZTAdBgNVHQ4EFgQUFxIFJfQleoMKouqz4SAJAnAG0UgwUgYDVR0jBEswSYAUbwjU
BnWWjwhIYLvc27CKFZpYZy+hLqQsMCoxCzAJBgNVBAYTAlVTMRswGQYDVQQDExJE
dW1teSBsb2NhbGhvc3QgQ0GCAQAwCQYDVR0RBAIwADAJBgNVHRIEAjAAMA0GCSqG
SIb3DQEBBAUAA4GBAGm9vQ14SJPGKuSxjmL+dcDxp9rk8aK1sO2g6C1tb8hTdF1n
hzAUV5CxlKAMp2I3tjNsCAFejaDiFwdNwMQI0Ghs3VPfW69JYXy3NvGR3t9ZDm4Q
1qusr24QPli1s++KxFamn1/S94qfm8strpYT36PyxkIhDRyfs/9LCrjn4R/b
-----END CERTIFICATE-----
