Certificate:
    Data:
        Version: 3 (0x2)
        Serial Number: 4097 (0x1001)
    Signature Algorithm: sha256WithRSAEncryption
        Issuer: C=ES, ST=A Corunha, L=Santiago de Compostela, O=4eixos, OU=acciona, CN=*
        Validity
            Not Before: Nov  4 11:07:22 2016 GMT
            Not After : Mar  7 11:07:22 3016 GMT
        Subject: C=ES, ST=A Corunha, O=4eixos, OU=acciona, CN=testclient.acciona.riyic.com
        Subject Public Key Info:
            Public Key Algorithm: rsaEncryption
                Public-Key: (4096 bit)
                Modulus:
                    00:bc:01:c0:7e:20:f2:eb:9a:91:2f:eb:5d:ca:06:
                    dd:bb:89:22:17:b7:58:56:62:b1:6f:eb:c3:5d:3e:
                    f7:12:47:31:17:3d:c8:20:e6:7d:9c:d9:80:0d:86:
                    f3:ff:e4:5c:c7:14:ca:21:88:a7:78:2e:e1:e2:30:
                    7c:68:de:17:4d:16:95:31:40:17:de:b3:9e:15:21:
                    3a:9e:3e:a1:f2:86:58:41:ff:58:17:85:e1:35:c0:
                    40:f7:62:65:f8:4d:ec:49:dc:35:a4:08:87:b8:39:
                    6a:bf:a3:4a:f5:6f:f9:95:94:78:b7:2f:92:40:6e:
                    f0:99:4e:2c:2d:83:bb:b6:6f:81:f4:0b:f0:e8:f1:
                    6b:9d:53:d9:30:eb:81:a1:40:f7:c5:8c:cc:74:99:
                    39:5a:bf:51:b6:4a:3c:67:08:36:b5:49:bb:c7:77:
                    a6:f5:18:cd:19:cb:15:26:f5:15:24:5b:e9:3c:82:
                    a2:ed:f2:34:01:45:0d:dd:0e:0b:39:ff:0e:48:92:
                    db:4a:5a:b0:1d:29:6e:37:9d:54:1c:da:06:cf:53:
                    cd:d7:43:b5:4e:c0:75:b7:ee:c7:17:5f:fc:09:82:
                    39:94:fe:fc:8f:bd:c8:5c:ab:d0:c8:23:90:97:8a:
                    17:21:9a:e1:18:ea:16:0a:bc:81:95:71:3b:8b:0d:
                    0c:63:04:ed:4f:8e:ea:ed:9f:c8:bb:11:f3:d8:86:
                    ba:b8:22:19:70:61:ae:4e:d0:a1:96:09:e3:81:3f:
                    49:1d:a6:3a:02:89:f3:8d:44:fb:18:2d:12:e0:3f:
                    c1:1d:b6:e4:15:0b:23:a5:1a:05:0d:35:e3:ca:4d:
                    54:1c:a9:e8:76:1d:f9:20:ee:07:05:f0:75:17:58:
                    72:e7:d5:9a:eb:77:eb:3b:b3:4e:d7:58:45:84:36:
                    6e:bc:10:0c:31:b7:61:d9:d3:dd:d9:e0:6c:ac:73:
                    e1:dd:f5:f8:f4:fa:bc:8b:b8:b2:d6:a0:ac:bf:b4:
                    81:ba:0a:8a:7e:84:9a:1e:f9:df:4f:2b:bf:2d:b2:
                    16:41:68:9d:39:69:f6:ab:0a:76:05:7f:68:8a:a3:
                    55:7a:67:a3:04:e0:fd:01:b4:8d:97:14:e3:e2:af:
                    7d:48:f7:15:6f:68:a8:02:bd:b5:fe:43:41:7e:f2:
                    4b:1a:b2:18:d7:44:e2:43:a3:d4:3e:e1:89:80:b3:
                    c7:0e:f1:d4:65:6b:e1:8a:d2:53:3a:8d:20:55:25:
                    59:ce:51:b9:46:50:7d:9c:6d:54:ad:fe:98:fe:4d:
                    56:78:65:24:86:02:2a:28:69:b3:1f:a3:fa:3d:79:
                    25:86:29:bb:3c:1d:7e:bf:31:8e:ec:67:96:bc:b2:
                    a4:ef:cd
                Exponent: 65537 (0x10001)
        X509v3 extensions:
            X509v3 Basic Constraints: 
                CA:FALSE
            Netscape Cert Type: 
                SSL Client
            Netscape Comment: 
                OpenSSL Generated Client Certificate
            X509v3 Subject Key Identifier: 
                56:4A:9D:60:1E:6C:5D:6B:71:A9:FB:26:1A:EF:C5:F2:41:BA:88:E7
            X509v3 Authority Key Identifier: 
                keyid:CC:33:66:5B:3B:4B:DF:85:EA:B9:6E:1C:B9:97:70:4F:09:3B:39:D0
                DirName:/C=ES/ST=A Corunha/L=Santiago de Compostela/O=4eixos/OU=acciona/CN=*
                serial:83:E2:DA:68:23:6B:F3:7A

            X509v3 Extended Key Usage: 
                TLS Web Client Authentication
            X509v3 Key Usage: 
                Digital Signature
    Signature Algorithm: sha256WithRSAEncryption
         28:2c:69:46:a8:6b:bf:30:09:c8:31:fa:c9:de:0b:cb:04:80:
         5c:44:59:67:dd:d3:7e:f5:e9:5c:a2:fa:bb:d0:56:0b:83:71:
         1b:c8:18:66:38:a5:19:85:69:06:35:7d:05:34:6f:40:19:53:
         49:4e:d3:44:a2:24:92:75:53:34:c8:73:10:6b:2b:b6:3c:72:
         b1:b8:a8:8c:a2:0e:0d:12:27:23:c2:2d:b4:94:72:8e:ce:2a:
         6c:42:0a:12:f3:b0:49:fa:3c:81:54:77:33:48:96:c9:d2:eb:
         eb:2c:f0:6c:2e:54:ff:20:79:d4:69:19:f4:09:ee:08:14:d0:
         a7:ee:cc:6b:b0:b2:d4:de:64:26:4b:c3:44:ea:74:ad:99:0e:
         32:ff:d2:52:f2:57:cc:71:36:3a:a5:cc:eb:23:3e:13:9f:4d:
         a1:42:b4:43:69:c0:d9:a3:ad:3b:b8:49:fb:f0:1f:98:c0:73:
         a9:7b:c7:6d:91:37:38:23:7d:4b:2a:c0:9b:2e:3c:19:c5:3a:
         7c:6d:bb:52:c5:89:b7:bf:f1:a9:47:4c:ee:fa:eb:3d:24:3a:
         33:a2:dd:20:8e:f4:e3:9c:ba:e2:5d:62:54:87:eb:f6:57:f1:
         2d:4f:3a:5a:25:a8:16:6d:da:98:a9:62:bf:44:e3:95:62:4f:
         8e:7d:cf:ad:b6:15:5d:fd:65:5c:d9:6d:4f:ef:62:44:2d:7e:
         09:16:ce:1c:cc:26:34:86:dc:cf:72:26:2d:d8:37:03:02:83:
         39:b0:2d:9f:35:3a:7f:07:f4:94:32:1a:99:1e:45:8e:c4:71:
         20:c0:07:80:06:6a:8a:9e:3e:af:b2:00:35:3c:ba:f9:df:4a:
         e7:09:90:d4:c5:40:60:94:f8:1b:ce:82:82:3b:dd:f2:ce:90:
         c4:63:8e:97:78:05:12:26:ad:b1:44:c5:f3:03:ef:78:e4:a4:
         5f:95:65:8b:9c:c5:92:7d:19:94:0e:81:1e:27:ee:97:06:c1:
         00:14:61:71:a3:c0:64:53:78:d1:49:b6:b3:5e:73:ff:7e:9a:
         46:ee:65:2e:50:d8:52:b3:8b:50:b8:d7:82:d4:63:f5:10:ff:
         19:97:2d:cd:ea:54:2f:dd:13:f7:1b:b7:69:78:de:e8:59:46:
         93:80:72:c8:65:5d:91:df:bc:9e:e4:49:67:fa:3d:eb:82:d7:
         24:9c:d3:ec:8a:04:78:bc:07:d2:83:4c:3f:e8:c5:6d:55:e2:
         7c:93:19:14:bd:de:9d:7b:3f:27:8f:7e:29:77:81:64:d4:3c:
         f5:93:c8:f1:d9:90:35:2d:51:78:45:37:83:af:0b:2c:44:45:
         48:ea:dd:c5:31:9b:f5:11
-----BEGIN CERTIFICATE-----
MIIGmjCCBIKgAwIBAgICEAEwDQYJKoZIhvcNAQELBQAwcTELMAkGA1UEBhMCRVMx
EjAQBgNVBAgMCUEgQ29ydW5oYTEfMB0GA1UEBwwWU2FudGlhZ28gZGUgQ29tcG9z
dGVsYTEPMA0GA1UECgwGNGVpeG9zMRAwDgYDVQQLDAdhY2Npb25hMQowCAYDVQQD
DAEqMCAXDTE2MTEwNDExMDcyMloYDzMwMTYwMzA3MTEwNzIyWjBrMQswCQYDVQQG
EwJFUzESMBAGA1UECAwJQSBDb3J1bmhhMQ8wDQYDVQQKDAY0ZWl4b3MxEDAOBgNV
BAsMB2FjY2lvbmExJTAjBgNVBAMMHHRlc3RjbGllbnQuYWNjaW9uYS5yaXlpYy5j
b20wggIiMA0GCSqGSIb3DQEBAQUAA4ICDwAwggIKAoICAQC8AcB+IPLrmpEv613K
Bt27iSIXt1hWYrFv68NdPvcSRzEXPcgg5n2c2YANhvP/5FzHFMohiKd4LuHiMHxo
3hdNFpUxQBfes54VITqePqHyhlhB/1gXheE1wED3YmX4TexJ3DWkCIe4OWq/o0r1
b/mVlHi3L5JAbvCZTiwtg7u2b4H0C/Do8WudU9kw64GhQPfFjMx0mTlav1G2Sjxn
CDa1SbvHd6b1GM0ZyxUm9RUkW+k8gqLt8jQBRQ3dDgs5/w5IkttKWrAdKW43nVQc
2gbPU83XQ7VOwHW37scXX/wJgjmU/vyPvchcq9DII5CXihchmuEY6hYKvIGVcTuL
DQxjBO1Pjurtn8i7EfPYhrq4IhlwYa5O0KGWCeOBP0kdpjoCifONRPsYLRLgP8Ed
tuQVCyOlGgUNNePKTVQcqeh2Hfkg7gcF8HUXWHLn1Zrrd+s7s07XWEWENm68EAwx
t2HZ093Z4Gysc+Hd9fj0+ryLuLLWoKy/tIG6Cop+hJoe+d9PK78tshZBaJ05afar
CnYFf2iKo1V6Z6ME4P0BtI2XFOPir31I9xVvaKgCvbX+Q0F+8ksashjXROJDo9Q+
4YmAs8cO8dRla+GK0lM6jSBVJVnOUblGUH2cbVSt/pj+TVZ4ZSSGAiooabMfo/o9
eSWGKbs8HX6/MY7sZ5a8sqTvzQIDAQABo4IBPjCCATowCQYDVR0TBAIwADARBglg
hkgBhvhCAQEEBAMCB4AwMwYJYIZIAYb4QgENBCYWJE9wZW5TU0wgR2VuZXJhdGVk
IENsaWVudCBDZXJ0aWZpY2F0ZTAdBgNVHQ4EFgQUVkqdYB5sXWtxqfsmGu/F8kG6
iOcwgaMGA1UdIwSBmzCBmIAUzDNmWztL34XquW4cuZdwTwk7OdChdaRzMHExCzAJ
BgNVBAYTAkVTMRIwEAYDVQQIDAlBIENvcnVuaGExHzAdBgNVBAcMFlNhbnRpYWdv
IGRlIENvbXBvc3RlbGExDzANBgNVBAoMBjRlaXhvczEQMA4GA1UECwwHYWNjaW9u
YTEKMAgGA1UEAwwBKoIJAIPi2mgja/N6MBMGA1UdJQQMMAoGCCsGAQUFBwMCMAsG
A1UdDwQEAwIHgDANBgkqhkiG9w0BAQsFAAOCAgEAKCxpRqhrvzAJyDH6yd4LywSA
XERZZ93TfvXpXKL6u9BWC4NxG8gYZjilGYVpBjV9BTRvQBlTSU7TRKIkknVTNMhz
EGsrtjxysbiojKIODRInI8IttJRyjs4qbEIKEvOwSfo8gVR3M0iWydLr6yzwbC5U
/yB51GkZ9AnuCBTQp+7Ma7Cy1N5kJkvDROp0rZkOMv/SUvJXzHE2OqXM6yM+E59N
oUK0Q2nA2aOtO7hJ+/AfmMBzqXvHbZE3OCN9SyrAmy48GcU6fG27UsWJt7/xqUdM
7vrrPSQ6M6LdII7045y64l1iVIfr9lfxLU86WiWoFm3amKliv0TjlWJPjn3PrbYV
Xf1lXNltT+9iRC1+CRbOHMwmNIbcz3ImLdg3AwKDObAtnzU6fwf0lDIamR5FjsRx
IMAHgAZqip4+r7IANTy6+d9K5wmQ1MVAYJT4G86Cgjvd8s6QxGOOl3gFEiatsUTF
8wPveOSkX5Vli5zFkn0ZlA6BHifulwbBABRhcaPAZFN40Um2s15z/36aRu5lLlDY
UrOLULjXgtRj9RD/GZctzepUL90T9xu3aXje6FlGk4ByyGVdkd+8nuRJZ/o964LX
JJzT7IoEeLwH0oNMP+jFbVXifJMZFL3enXs/J49+KXeBZNQ89ZPI8dmQNS1ReEU3
g68LLERFSOrdxTGb9RE=
-----END CERTIFICATE-----
