Certificate:
    Data:
        Version: 3 (0x2)
        Serial Number: 4096 (0x1000)
    Signature Algorithm: sha256WithRSAEncryption
        Issuer: C=ES, ST=A Corunha, L=Santiago de Compostela, O=4eixos, OU=acciona, CN=*
        Validity
            Not Before: Nov  4 11:07:07 2016 GMT
            Not After : Mar  7 11:07:07 3016 GMT
        Subject: C=ES, ST=A Corunha, O=4eixos, OU=acciona, CN=testserver.acciona.riyic.com
        Subject Public Key Info:
            Public Key Algorithm: rsaEncryption
                Public-Key: (4096 bit)
                Modulus:
                    00:a7:ab:d8:51:3f:57:73:f3:96:ae:f5:13:1b:9a:
                    da:80:51:d8:89:2b:1c:55:25:9d:71:ee:ef:e6:44:
                    b4:f9:cb:f8:19:0e:a7:23:ef:a1:f7:5a:0e:b5:36:
                    0f:1a:12:bf:2a:7b:4f:64:7b:9e:ca:a1:d3:1c:c3:
                    cf:11:e4:bc:d9:c9:3d:09:b0:c1:52:6c:b4:9e:db:
                    89:fe:d8:48:05:4e:99:97:53:56:8c:10:0a:fc:46:
                    c9:2e:27:03:dc:ef:9c:ab:3a:80:60:91:e7:59:78:
                    9a:ae:43:c6:da:c6:d1:87:87:98:f6:4a:7c:8b:af:
                    98:00:24:eb:82:07:d0:85:9d:9c:6d:90:27:9c:aa:
                    51:fc:91:b8:d8:da:82:bd:8c:5f:25:9c:c1:ba:1a:
                    df:75:f7:fc:a6:48:8d:03:70:a1:53:06:42:43:eb:
                    21:06:70:bd:13:f3:c5:72:65:b0:65:cd:01:8f:51:
                    e7:a4:6c:ca:3a:8e:94:fc:26:d2:3f:93:f5:23:3b:
                    71:8f:ae:0c:85:5a:2f:f7:c6:55:4d:8b:39:a6:ea:
                    2f:f6:33:b2:54:46:35:e7:ad:f1:ab:46:25:91:83:
                    63:e9:f8:1e:84:ad:b1:a7:b9:27:2f:2f:11:a0:52:
                    e0:84:6f:86:74:79:e0:bb:bc:51:06:22:37:91:47:
                    a9:20:3e:9a:74:82:1d:38:ed:9b:5a:4f:79:c5:55:
                    99:98:9a:33:5b:12:07:e1:99:42:a2:f7:c6:e9:8e:
                    eb:5e:af:58:ce:0b:13:88:8a:ce:6b:41:6d:f0:cd:
                    ae:63:61:eb:52:73:cc:a8:20:ee:7b:1a:72:ca:3a:
                    8e:86:a1:92:12:23:bd:bc:e6:83:0f:7d:25:85:a6:
                    fe:96:b8:90:7b:c2:68:e9:27:c7:25:9b:cf:7b:8b:
                    69:93:d3:27:7c:55:b7:c6:be:b8:a4:2e:67:23:63:
                    45:96:d6:7d:0c:0e:4b:4d:13:b0:59:0c:a5:fc:9c:
                    d4:67:59:3a:1f:05:df:ca:17:9e:84:ce:ca:29:a3:
                    59:d1:31:a2:52:06:ac:c7:cf:78:f8:4a:84:a1:f8:
                    73:49:89:a0:f3:ae:f7:6e:72:e6:41:86:12:ff:25:
                    10:b6:55:0b:2b:68:46:b7:31:94:bd:5c:20:9f:c1:
                    2f:cd:05:17:85:af:30:71:e6:b7:59:7d:d1:63:8d:
                    12:42:a0:0c:be:f2:33:c4:aa:20:07:d0:0a:31:97:
                    0e:26:df:be:37:e7:54:96:a7:88:4c:05:21:b6:8b:
                    58:8c:6d:c6:2c:3c:53:c7:75:cd:c1:fb:d8:8b:e5:
                    f4:d0:12:4a:ac:91:f1:7e:37:06:11:67:dd:8a:85:
                    5d:fe:4f
                Exponent: 65537 (0x10001)
        X509v3 extensions:
            X509v3 Basic Constraints: 
                CA:FALSE
            Netscape Cert Type: 
                SSL Server
            Netscape Comment: 
                OpenSSL Generated Server Certificate
            X509v3 Subject Key Identifier: 
                F5:B9:4D:5F:C6:54:0E:20:D2:49:0D:46:CF:EE:A5:C2:95:8C:A4:4A
            X509v3 Authority Key Identifier: 
                keyid:CC:33:66:5B:3B:4B:DF:85:EA:B9:6E:1C:B9:97:70:4F:09:3B:39:D0
                DirName:/C=ES/ST=A Corunha/L=Santiago de Compostela/O=4eixos/OU=acciona/CN=*
                serial:83:E2:DA:68:23:6B:F3:7A

            X509v3 Extended Key Usage: 
                TLS Web Server Authentication
            X509v3 Key Usage: 
                Digital Signature, Key Encipherment
            X509v3 Subject Alternative Name: 
                DNS:testserver.acciona.riyic.com, DNS:localhost
    Signature Algorithm: sha256WithRSAEncryption
         14:79:bf:36:ce:83:38:52:53:98:a5:fc:36:02:f4:6e:b8:79:
         a2:eb:07:5d:81:83:fe:8a:0e:66:1e:34:b9:89:7d:d2:d1:f8:
         25:20:4d:25:7b:ef:d4:9f:d5:bc:f2:3b:7f:ea:e7:4f:3c:bc:
         15:74:51:76:60:1b:88:e7:ab:b9:2c:52:91:af:eb:df:b9:0b:
         99:3a:51:76:51:e3:4c:2a:70:f2:f8:9e:7d:86:e7:e7:db:92:
         b7:8c:36:50:02:7b:fb:35:21:22:b5:eb:23:90:90:93:a7:94:
         f6:7c:37:b7:06:7b:73:ac:e8:1c:9b:3d:6f:28:93:40:63:82:
         97:ad:5c:d9:bc:90:10:5b:48:37:98:e3:98:6c:d1:65:87:21:
         b8:78:75:bd:ca:aa:68:7e:ea:b0:34:15:4d:0d:75:50:ff:14:
         01:51:07:63:eb:42:03:d0:30:a2:16:b8:5e:7a:50:fc:92:81:
         be:2b:f6:40:f3:7a:6d:45:6b:66:f7:dd:d9:32:25:e2:df:b3:
         c7:86:2d:dc:a0:8d:0b:99:2c:3f:ae:55:56:e5:93:10:5b:4c:
         7e:08:23:bc:cb:8e:97:04:fc:14:d8:0e:cc:36:7e:97:ea:a3:
         c3:12:fd:88:1a:5f:51:f1:cf:4b:03:b6:af:46:40:07:b8:97:
         03:1b:aa:63:92:7a:59:e6:f8:5b:d7:f4:b2:94:bd:c6:70:4e:
         f9:01:33:3a:1b:49:35:52:1a:0a:d2:0e:f1:7a:77:aa:10:0e:
         6d:4f:f6:da:ee:97:46:f1:6f:29:56:73:18:a7:9f:7d:d2:c4:
         ec:8b:83:dd:ea:24:37:39:22:d3:95:be:5a:92:01:84:f1:c1:
         a0:81:05:24:bf:12:92:0b:ce:21:47:0d:7a:91:61:db:e9:79:
         cc:4d:d5:45:0a:3a:ea:6b:ea:4d:61:c0:f5:31:fe:b7:49:b8:
         7e:86:10:66:f4:24:f2:bf:9a:07:04:37:85:0e:40:c2:10:af:
         d2:fd:84:0a:15:70:e9:90:ec:60:ce:7a:62:fe:0f:af:06:f1:
         09:c4:0b:50:2a:b0:c2:cc:26:05:5f:95:92:84:2e:c0:30:84:
         2d:21:34:b5:51:8b:48:c7:d9:aa:a2:ee:77:36:f4:e7:fe:7c:
         41:95:93:cf:76:7e:c4:de:ee:1a:02:d3:ec:5e:1c:1f:96:70:
         cb:7f:57:89:48:c3:20:12:27:9d:cc:c1:86:fc:71:96:aa:2f:
         25:12:61:76:46:a7:66:ac:4f:59:79:ab:71:63:a0:bd:ca:36:
         e2:19:df:0e:b0:46:44:86:63:2a:2e:63:ff:51:83:1f:67:15:
         71:fb:ff:24:a1:72:ae:90
-----BEGIN CERTIFICATE-----
MIIGzjCCBLagAwIBAgICEAAwDQYJKoZIhvcNAQELBQAwcTELMAkGA1UEBhMCRVMx
EjAQBgNVBAgMCUEgQ29ydW5oYTEfMB0GA1UEBwwWU2FudGlhZ28gZGUgQ29tcG9z
dGVsYTEPMA0GA1UECgwGNGVpeG9zMRAwDgYDVQQLDAdhY2Npb25hMQowCAYDVQQD
DAEqMCAXDTE2MTEwNDExMDcwN1oYDzMwMTYwMzA3MTEwNzA3WjBrMQswCQYDVQQG
EwJFUzESMBAGA1UECAwJQSBDb3J1bmhhMQ8wDQYDVQQKDAY0ZWl4b3MxEDAOBgNV
BAsMB2FjY2lvbmExJTAjBgNVBAMMHHRlc3RzZXJ2ZXIuYWNjaW9uYS5yaXlpYy5j
b20wggIiMA0GCSqGSIb3DQEBAQUAA4ICDwAwggIKAoICAQCnq9hRP1dz85au9RMb
mtqAUdiJKxxVJZ1x7u/mRLT5y/gZDqcj76H3Wg61Ng8aEr8qe09ke57KodMcw88R
5LzZyT0JsMFSbLSe24n+2EgFTpmXU1aMEAr8RskuJwPc75yrOoBgkedZeJquQ8ba
xtGHh5j2SnyLr5gAJOuCB9CFnZxtkCecqlH8kbjY2oK9jF8lnMG6Gt919/ymSI0D
cKFTBkJD6yEGcL0T88VyZbBlzQGPUeekbMo6jpT8JtI/k/UjO3GPrgyFWi/3xlVN
izmm6i/2M7JURjXnrfGrRiWRg2Pp+B6ErbGnuScvLxGgUuCEb4Z0eeC7vFEGIjeR
R6kgPpp0gh047ZtaT3nFVZmYmjNbEgfhmUKi98bpjuter1jOCxOIis5rQW3wza5j
YetSc8yoIO57GnLKOo6GoZISI7285oMPfSWFpv6WuJB7wmjpJ8clm897i2mT0yd8
VbfGvrikLmcjY0WW1n0MDktNE7BZDKX8nNRnWTofBd/KF56Ezsopo1nRMaJSBqzH
z3j4SoSh+HNJiaDzrvducuZBhhL/JRC2VQsraEa3MZS9XCCfwS/NBReFrzBx5rdZ
fdFjjRJCoAy+8jPEqiAH0Aoxlw4m374351SWp4hMBSG2i1iMbcYsPFPHdc3B+9iL
5fTQEkqskfF+NwYRZ92KhV3+TwIDAQABo4IBcjCCAW4wCQYDVR0TBAIwADARBglg
hkgBhvhCAQEEBAMCBkAwMwYJYIZIAYb4QgENBCYWJE9wZW5TU0wgR2VuZXJhdGVk
IFNlcnZlciBDZXJ0aWZpY2F0ZTAdBgNVHQ4EFgQU9blNX8ZUDiDSSQ1Gz+6lwpWM
pEowgaMGA1UdIwSBmzCBmIAUzDNmWztL34XquW4cuZdwTwk7OdChdaRzMHExCzAJ
BgNVBAYTAkVTMRIwEAYDVQQIDAlBIENvcnVuaGExHzAdBgNVBAcMFlNhbnRpYWdv
IGRlIENvbXBvc3RlbGExDzANBgNVBAoMBjRlaXhvczEQMA4GA1UECwwHYWNjaW9u
YTEKMAgGA1UEAwwBKoIJAIPi2mgja/N6MBMGA1UdJQQMMAoGCCsGAQUFBwMBMAsG
A1UdDwQEAwIFoDAyBgNVHREEKzApghx0ZXN0c2VydmVyLmFjY2lvbmEucml5aWMu
Y29tgglsb2NhbGhvc3QwDQYJKoZIhvcNAQELBQADggIBABR5vzbOgzhSU5il/DYC
9G64eaLrB12Bg/6KDmYeNLmJfdLR+CUgTSV779Sf1bzyO3/q5088vBV0UXZgG4jn
q7ksUpGv69+5C5k6UXZR40wqcPL4nn2G5+fbkreMNlACe/s1ISK16yOQkJOnlPZ8
N7cGe3Os6BybPW8ok0BjgpetXNm8kBBbSDeY45hs0WWHIbh4db3Kqmh+6rA0FU0N
dVD/FAFRB2PrQgPQMKIWuF56UPySgb4r9kDzem1Fa2b33dkyJeLfs8eGLdygjQuZ
LD+uVVblkxBbTH4II7zLjpcE/BTYDsw2fpfqo8MS/YgaX1Hxz0sDtq9GQAe4lwMb
qmOSelnm+FvX9LKUvcZwTvkBMzobSTVSGgrSDvF6d6oQDm1P9trul0bxbylWcxin
n33SxOyLg93qJDc5ItOVvlqSAYTxwaCBBSS/EpILziFHDXqRYdvpecxN1UUKOupr
6k1hwPUx/rdJuH6GEGb0JPK/mgcEN4UOQMIQr9L9hAoVcOmQ7GDOemL+D68G8QnE
C1AqsMLMJgVflZKELsAwhC0hNLVRi0jH2aqi7nc29Of+fEGVk892fsTe7hoC0+xe
HB+WcMt/V4lIwyASJ53MwYb8cZaqLyUSYXZGp2asT1l5q3FjoL3KNuIZ3w6wRkSG
YyouY/9Rgx9nFXH7/yShcq6Q
-----END CERTIFICATE-----
