Certificate:
    Data:
        Version: 3 (0x2)
        Serial Number: 2 (0x2)
    Signature Algorithm: sha256WithRSAEncryption
        Issuer: C=UA, ST=UA, L=Kharkov, O=Test, OU=changeme, CN=Test CA/name=EasyRSA/emailAddress=powerman@powerman.name
        Validity
            Not Before: Feb 27 17:18:07 2016 GMT
            Not After : Feb 24 17:18:07 2026 GMT
        Subject: C=UA, ST=UA, L=Kharkov, O=Test, OU=changeme, CN=testcln/name=EasyRSA/emailAddress=powerman@powerman.name
        Subject Public Key Info:
            Public Key Algorithm: rsaEncryption
                Public-Key: (2048 bit)
                Modulus:
                    00:d9:63:bb:87:81:8e:01:b6:5a:e6:bb:23:7d:ef:
                    7f:c2:46:03:57:45:ff:00:72:e2:64:17:bc:b1:00:
                    e2:4b:45:27:f8:26:cd:9a:dd:f1:73:22:91:67:17:
                    e2:6b:3d:03:fb:8f:f1:25:cd:eb:87:52:b2:a9:98:
                    aa:40:46:5f:b5:ba:74:63:55:b5:f9:40:eb:9e:8d:
                    2b:aa:ea:da:91:91:d1:b2:33:a6:76:ec:1f:1d:22:
                    a9:23:95:79:40:8a:ec:c7:8f:d9:e5:36:52:4f:64:
                    9c:be:ae:f7:6f:68:8d:a9:1c:fe:b3:7e:3d:9b:5d:
                    2a:8b:e6:93:be:47:f2:1c:5b:64:e4:f1:18:27:8b:
                    1c:8a:d7:bc:e6:2b:b2:45:eb:dc:b3:70:75:29:9d:
                    2d:0d:35:35:1f:fb:80:ff:e7:13:64:6f:a0:6f:5f:
                    b4:a1:44:83:59:bc:d0:df:8e:c3:cb:c5:ab:7d:58:
                    8f:20:1b:25:8d:62:a7:6d:df:c7:82:84:e0:10:cc:
                    1e:85:12:8c:e7:6f:1a:0c:00:26:a0:08:d0:d2:73:
                    57:e3:03:fb:83:33:4f:22:17:7d:42:3e:10:ea:b5:
                    2f:88:71:c5:17:63:1a:34:9d:61:08:75:7c:32:32:
                    91:67:98:86:ee:c6:5d:f4:f9:54:f2:3c:f0:95:ec:
                    60:63
                Exponent: 65537 (0x10001)
        X509v3 extensions:
            X509v3 Basic Constraints: 
                CA:FALSE
            Netscape Comment: 
                Easy-RSA Generated Certificate
            X509v3 Subject Key Identifier: 
                2A:49:C6:F3:C4:85:1D:CD:09:80:15:46:4C:21:1F:95:4C:D2:89:F2
            X509v3 Authority Key Identifier: 
                keyid:4A:85:02:90:51:24:1C:B8:09:34:72:93:86:49:47:A4:35:78:1A:17
                DirName:/C=UA/ST=UA/L=Kharkov/O=Test/OU=changeme/CN=Test CA/name=EasyRSA/emailAddress=powerman@powerman.name
                serial:E4:7C:9B:4C:94:04:C4:F9

            X509v3 Extended Key Usage: 
                TLS Web Client Authentication
            X509v3 Key Usage: 
                Digital Signature
    Signature Algorithm: sha256WithRSAEncryption
         ad:05:60:eb:9d:73:bc:be:09:7d:97:4a:e3:4d:8e:b1:2e:a5:
         5f:94:67:20:bf:93:eb:f2:1b:19:3c:74:7e:f2:e2:33:74:d8:
         ba:72:cb:c1:e4:52:e0:ac:40:ff:03:95:5e:27:53:6a:87:4c:
         17:66:37:52:e3:5f:16:de:99:64:92:e5:b7:68:7f:89:18:a7:
         cb:d8:c1:27:7c:2d:33:42:25:9f:3d:ee:d9:33:54:e0:0e:52:
         41:4b:12:e1:18:87:70:e8:3e:74:15:a2:0b:cc:7e:70:d9:7c:
         c1:45:9e:bc:00:d4:2e:9b:6b:c4:41:53:5b:6a:d6:3e:51:13:
         b0:04:48:09:13:08:19:75:69:99:a2:a1:41:fc:15:c6:fc:91:
         b6:34:53:83:4b:75:ff:91:67:7e:e9:8f:e6:05:17:56:03:88:
         78:da:ef:fc:98:6f:49:e9:ee:fc:8e:0a:61:9b:ab:dd:c9:4d:
         b9:57:3d:7b:9e:c6:7f:e7:6c:c6:aa:90:02:66:cd:20:53:86:
         78:a4:74:7e:71:26:b8:06:bd:d6:72:53:ca:5c:f5:c1:4f:cf:
         2e:cc:e2:d0:5a:01:92:49:c7:18:89:fb:67:2c:cb:c0:c4:d0:
         b1:76:c9:09:6d:85:40:3b:d8:5e:70:41:c3:5a:69:bd:68:62:
         09:3d:97:f7
-----BEGIN CERTIFICATE-----
MIIFATCCA+mgAwIBAgIBAjANBgkqhkiG9w0BAQsFADCBmTELMAkGA1UEBhMCVUEx
CzAJBgNVBAgTAlVBMRAwDgYDVQQHEwdLaGFya292MQ0wCwYDVQQKEwRUZXN0MREw
DwYDVQQLEwhjaGFuZ2VtZTEQMA4GA1UEAxMHVGVzdCBDQTEQMA4GA1UEKRMHRWFz
eVJTQTElMCMGCSqGSIb3DQEJARYWcG93ZXJtYW5AcG93ZXJtYW4ubmFtZTAeFw0x
NjAyMjcxNzE4MDdaFw0yNjAyMjQxNzE4MDdaMIGZMQswCQYDVQQGEwJVQTELMAkG
A1UECBMCVUExEDAOBgNVBAcTB0toYXJrb3YxDTALBgNVBAoTBFRlc3QxETAPBgNV
BAsTCGNoYW5nZW1lMRAwDgYDVQQDEwd0ZXN0Y2xuMRAwDgYDVQQpEwdFYXN5UlNB
MSUwIwYJKoZIhvcNAQkBFhZwb3dlcm1hbkBwb3dlcm1hbi5uYW1lMIIBIjANBgkq
hkiG9w0BAQEFAAOCAQ8AMIIBCgKCAQEA2WO7h4GOAbZa5rsjfe9/wkYDV0X/AHLi
ZBe8sQDiS0Un+CbNmt3xcyKRZxfiaz0D+4/xJc3rh1KyqZiqQEZftbp0Y1W1+UDr
no0rqurakZHRsjOmduwfHSKpI5V5QIrsx4/Z5TZST2Scvq73b2iNqRz+s349m10q
i+aTvkfyHFtk5PEYJ4scite85iuyRevcs3B1KZ0tDTU1H/uA/+cTZG+gb1+0oUSD
WbzQ347Dy8WrfViPIBsljWKnbd/HgoTgEMwehRKM528aDAAmoAjQ0nNX4wP7gzNP
Ihd9Qj4Q6rUviHHFF2MaNJ1hCHV8MjKRZ5iG7sZd9PlU8jzwlexgYwIDAQABo4IB
UDCCAUwwCQYDVR0TBAIwADAtBglghkgBhvhCAQ0EIBYeRWFzeS1SU0EgR2VuZXJh
dGVkIENlcnRpZmljYXRlMB0GA1UdDgQWBBQqScbzxIUdzQmAFUZMIR+VTNKJ8jCB
zgYDVR0jBIHGMIHDgBRKhQKQUSQcuAk0cpOGSUekNXgaF6GBn6SBnDCBmTELMAkG
A1UEBhMCVUExCzAJBgNVBAgTAlVBMRAwDgYDVQQHEwdLaGFya292MQ0wCwYDVQQK
EwRUZXN0MREwDwYDVQQLEwhjaGFuZ2VtZTEQMA4GA1UEAxMHVGVzdCBDQTEQMA4G
A1UEKRMHRWFzeVJTQTElMCMGCSqGSIb3DQEJARYWcG93ZXJtYW5AcG93ZXJtYW4u
bmFtZYIJAOR8m0yUBMT5MBMGA1UdJQQMMAoGCCsGAQUFBwMCMAsGA1UdDwQEAwIH
gDANBgkqhkiG9w0BAQsFAAOCAQEArQVg651zvL4JfZdK402OsS6lX5RnIL+T6/Ib
GTx0fvLiM3TYunLLweRS4KxA/wOVXidTaodMF2Y3UuNfFt6ZZJLlt2h/iRiny9jB
J3wtM0Ilnz3u2TNU4A5SQUsS4RiHcOg+dBWiC8x+cNl8wUWevADULptrxEFTW2rW
PlETsARICRMIGXVpmaKhQfwVxvyRtjRTg0t1/5FnfumP5gUXVgOIeNrv/JhvSenu
/I4KYZur3clNuVc9e57Gf+dsxqqQAmbNIFOGeKR0fnEmuAa91nJTylz1wU/PLszi
0FoBkknHGIn7ZyzLwMTQsXbJCW2FQDvYXnBBw1ppvWhiCT2X9w==
-----END CERTIFICATE-----
