Certificate:
    Data:
        Version: 3 (0x2)
        Serial Number: 1 (0x1)
    Signature Algorithm: sha256WithRSAEncryption
        Issuer: C=UA, ST=UA, L=Kharkov, O=Test, OU=changeme, CN=Test CA/name=EasyRSA/emailAddress=powerman@powerman.name
        Validity
            Not Before: Feb 27 17:17:56 2016 GMT
            Not After : Feb 24 17:17:56 2026 GMT
        Subject: C=UA, ST=UA, L=Kharkov, O=Test, OU=changeme, CN=testsrv/name=EasyRSA/emailAddress=powerman@powerman.name
        Subject Public Key Info:
            Public Key Algorithm: rsaEncryption
                Public-Key: (2048 bit)
                Modulus:
                    00:af:86:1c:c3:07:3d:34:08:23:4d:f2:68:65:71:
                    35:32:f0:7a:11:4b:0a:04:94:cc:c8:59:e4:18:15:
                    4d:df:8a:65:ff:91:15:6a:d1:8b:7c:ef:0d:6e:58:
                    37:c4:04:54:a1:12:b6:20:c2:e4:e6:0d:3f:1f:84:
                    4e:da:55:50:62:52:70:af:94:ed:75:3d:2b:fa:70:
                    fe:d8:2e:88:8f:72:ea:74:30:59:18:27:cb:73:e0:
                    89:50:a8:24:22:93:31:14:91:28:29:95:8a:93:3e:
                    9e:43:0d:29:4b:a1:e5:99:1e:93:2d:19:d7:7c:f2:
                    13:35:8e:38:81:08:de:7f:b9:fb:06:f7:30:a5:4e:
                    d6:f1:12:d0:7f:8e:cc:a1:86:03:b6:9f:a7:7c:2f:
                    c0:ac:b9:d8:36:9a:89:29:3a:1e:b9:01:84:0f:9f:
                    42:db:03:22:7d:37:a4:64:0a:6e:a8:b7:b1:bd:cf:
                    51:c1:95:15:4a:10:10:7f:5b:f1:45:20:cc:a5:63:
                    58:e1:21:aa:67:01:96:d9:2c:73:17:34:f0:06:25:
                    02:90:d5:73:d7:99:2a:7a:f4:ab:28:62:1a:fc:df:
                    88:c2:05:6f:13:2e:e6:2f:f6:16:b7:43:18:5f:a8:
                    b1:a2:2e:b1:4a:8f:6a:b0:82:a5:6f:8e:28:08:0e:
                    87:db
                Exponent: 65537 (0x10001)
        X509v3 extensions:
            X509v3 Basic Constraints: 
                CA:FALSE
            Netscape Cert Type: 
                SSL Server
            Netscape Comment: 
                Easy-RSA Generated Server Certificate
            X509v3 Subject Key Identifier: 
                33:3E:BD:B3:47:80:4C:73:A8:4F:78:C2:03:C5:52:1D:50:21:AB:A0
            X509v3 Authority Key Identifier: 
                keyid:4A:85:02:90:51:24:1C:B8:09:34:72:93:86:49:47:A4:35:78:1A:17
                DirName:/C=UA/ST=UA/L=Kharkov/O=Test/OU=changeme/CN=Test CA/name=EasyRSA/emailAddress=powerman@powerman.name
                serial:E4:7C:9B:4C:94:04:C4:F9

            X509v3 Extended Key Usage: 
                TLS Web Server Authentication
            X509v3 Key Usage: 
                Digital Signature, Key Encipherment
    Signature Algorithm: sha256WithRSAEncryption
         7d:9b:46:d2:6d:40:47:0c:6a:3d:4e:7b:b5:5d:15:34:0d:57:
         50:ed:9d:95:d2:ca:87:3d:d5:cc:6a:6e:0a:99:f3:4a:2d:12:
         92:91:57:50:dd:d8:c9:16:88:43:74:7c:2c:83:97:f4:f7:44:
         05:29:f2:3e:5e:00:f4:ec:4f:f1:bd:0b:a4:56:7f:ac:c3:e7:
         30:fd:8f:0f:b3:5e:c1:1e:81:11:53:b3:d3:07:38:5d:23:92:
         48:73:0f:10:00:7c:58:a6:76:21:5e:18:5c:59:ac:f3:a2:c8:
         2f:cc:74:80:82:17:c3:7f:b8:67:31:09:73:d7:e0:a8:40:34:
         e3:4b:32:25:dc:12:e5:41:b5:a9:24:0f:45:dc:fa:88:21:64:
         30:49:7e:97:b3:35:8a:9e:01:5c:ae:b1:f5:ef:a6:6a:fb:04:
         0c:12:6e:84:73:38:7b:a2:ff:19:6f:3f:9a:7b:c1:f8:8f:43:
         3e:22:16:fc:86:3c:55:16:c8:8e:56:94:4b:c1:f7:b6:31:2b:
         7c:b6:50:c3:40:67:a6:2c:e7:cb:11:e0:e8:54:1e:4e:2a:a1:
         70:ec:78:6f:4e:fe:f5:ee:6b:81:e0:30:47:58:ff:55:d4:9a:
         15:d3:14:ce:ee:d1:e8:6e:ff:22:0d:4b:26:37:16:72:d8:6c:
         bc:f9:94:2f
-----BEGIN CERTIFICATE-----
MIIFGzCCBAOgAwIBAgIBATANBgkqhkiG9w0BAQsFADCBmTELMAkGA1UEBhMCVUEx
CzAJBgNVBAgTAlVBMRAwDgYDVQQHEwdLaGFya292MQ0wCwYDVQQKEwRUZXN0MREw
DwYDVQQLEwhjaGFuZ2VtZTEQMA4GA1UEAxMHVGVzdCBDQTEQMA4GA1UEKRMHRWFz
eVJTQTElMCMGCSqGSIb3DQEJARYWcG93ZXJtYW5AcG93ZXJtYW4ubmFtZTAeFw0x
NjAyMjcxNzE3NTZaFw0yNjAyMjQxNzE3NTZaMIGZMQswCQYDVQQGEwJVQTELMAkG
A1UECBMCVUExEDAOBgNVBAcTB0toYXJrb3YxDTALBgNVBAoTBFRlc3QxETAPBgNV
BAsTCGNoYW5nZW1lMRAwDgYDVQQDEwd0ZXN0c3J2MRAwDgYDVQQpEwdFYXN5UlNB
MSUwIwYJKoZIhvcNAQkBFhZwb3dlcm1hbkBwb3dlcm1hbi5uYW1lMIIBIjANBgkq
hkiG9w0BAQEFAAOCAQ8AMIIBCgKCAQEAr4Ycwwc9NAgjTfJoZXE1MvB6EUsKBJTM
yFnkGBVN34pl/5EVatGLfO8Nblg3xARUoRK2IMLk5g0/H4RO2lVQYlJwr5TtdT0r
+nD+2C6Ij3LqdDBZGCfLc+CJUKgkIpMxFJEoKZWKkz6eQw0pS6HlmR6TLRnXfPIT
NY44gQjef7n7BvcwpU7W8RLQf47MoYYDtp+nfC/ArLnYNpqJKToeuQGED59C2wMi
fTekZApuqLexvc9RwZUVShAQf1vxRSDMpWNY4SGqZwGW2SxzFzTwBiUCkNVz15kq
evSrKGIa/N+IwgVvEy7mL/YWt0MYX6ixoi6xSo9qsIKlb44oCA6H2wIDAQABo4IB
ajCCAWYwCQYDVR0TBAIwADARBglghkgBhvhCAQEEBAMCBkAwNAYJYIZIAYb4QgEN
BCcWJUVhc3ktUlNBIEdlbmVyYXRlZCBTZXJ2ZXIgQ2VydGlmaWNhdGUwHQYDVR0O
BBYEFDM+vbNHgExzqE94wgPFUh1QIaugMIHOBgNVHSMEgcYwgcOAFEqFApBRJBy4
CTRyk4ZJR6Q1eBoXoYGfpIGcMIGZMQswCQYDVQQGEwJVQTELMAkGA1UECBMCVUEx
EDAOBgNVBAcTB0toYXJrb3YxDTALBgNVBAoTBFRlc3QxETAPBgNVBAsTCGNoYW5n
ZW1lMRAwDgYDVQQDEwdUZXN0IENBMRAwDgYDVQQpEwdFYXN5UlNBMSUwIwYJKoZI
hvcNAQkBFhZwb3dlcm1hbkBwb3dlcm1hbi5uYW1lggkA5HybTJQExPkwEwYDVR0l
BAwwCgYIKwYBBQUHAwEwCwYDVR0PBAQDAgWgMA0GCSqGSIb3DQEBCwUAA4IBAQB9
m0bSbUBHDGo9Tnu1XRU0DVdQ7Z2V0sqHPdXMam4KmfNKLRKSkVdQ3djJFohDdHws
g5f090QFKfI+XgD07E/xvQukVn+sw+cw/Y8Ps17BHoERU7PTBzhdI5JIcw8QAHxY
pnYhXhhcWazzosgvzHSAghfDf7hnMQlz1+CoQDTjSzIl3BLlQbWpJA9F3PqIIWQw
SX6XszWKngFcrrH176Zq+wQMEm6Eczh7ov8Zbz+ae8H4j0M+Ihb8hjxVFsiOVpRL
wfe2MSt8tlDDQGemLOfLEeDoVB5OKqFw7HhvTv717muB4DBHWP9V1JoV0xTO7tHo
bv8iDUsmNxZy2Gy8+ZQv
-----END CERTIFICATE-----
