Certificate:
    Data:
        Version: 3 (0x2)
        Serial Number: 1 (0x1)
    Signature Algorithm: md5WithRSAEncryption
        Issuer: C=GB, ST=London, O=CPAN, OU=Protocol-SPDY, CN=protocol-spdy.perlsite.co.uk
        Validity
            Not Before: Jul 11 22:50:01 2013 GMT
            Not After : Jul 11 22:50:01 2014 GMT
        Subject: C=GB, ST=London, OU=Protocol-SPDY, CN=protocol-spdy.perlsite.co.uk
        Subject Public Key Info:
            Public Key Algorithm: rsaEncryption
                Public-Key: (1024 bit)
                Modulus:
                    00:ef:5f:2f:0a:5f:23:19:6e:a3:58:d7:ab:e9:79:
                    cc:60:91:39:26:85:bb:19:e9:1a:d7:a7:ba:c2:63:
                    2a:51:34:3f:3c:62:5c:ce:be:ff:54:7a:3f:cc:81:
                    49:26:5e:0b:87:3c:b5:bd:bd:28:5b:b4:fe:f0:aa:
                    fc:ea:1b:0d:70:ef:5b:4b:6f:86:83:fd:90:59:95:
                    56:f7:6c:e3:e2:5d:0f:4e:3b:24:40:db:56:15:06:
                    39:82:5a:79:7b:59:c0:5d:b9:37:2f:dc:27:82:b8:
                    3b:01:ec:0b:81:ef:d8:94:e0:55:57:1e:df:2f:0b:
                    f4:e1:df:7d:8f:77:67:ce:8b
                Exponent: 65537 (0x10001)
        X509v3 extensions:
            X509v3 Basic Constraints: 
                CA:FALSE
            Netscape Comment: 
                OpenSSL Generated Certificate
            X509v3 Subject Key Identifier: 
                3D:EB:61:90:07:DD:31:55:1A:21:4A:FC:0E:01:54:E4:93:03:AD:A0
            X509v3 Authority Key Identifier: 
                keyid:42:BA:19:6F:E4:1F:B2:EB:8B:88:EF:31:83:68:7B:9B:37:43:16:1E
                DirName:/C=GB/ST=London/O=CPAN/OU=Protocol-SPDY/CN=protocol-spdy.perlsite.co.uk
                serial:A5:2C:84:4C:75:D4:ED:E7

    Signature Algorithm: md5WithRSAEncryption
         15:bb:bf:2c:cf:fa:65:e0:fc:25:9e:87:da:0a:f9:9f:26:00:
         03:f5:18:62:62:22:62:7b:d8:e0:e6:af:14:33:eb:2c:55:ca:
         c8:3e:65:0a:c6:45:91:8c:70:29:6e:32:af:3c:6f:76:71:46:
         67:35:2d:8b:1a:2a:54:71:95:f8:9f:cf:c1:c9:45:5b:0f:aa:
         fb:97:d4:3f:3d:8a:32:be:28:8d:8e:08:4a:7d:64:e5:37:dd:
         5b:33:62:90:d8:7f:cb:e8:90:1d:15:a0:2a:1b:39:0a:98:ae:
         38:9d:95:b9:94:ef:d8:45:4e:00:88:55:26:69:ec:7a:99:bb:
         84:d3
-----BEGIN CERTIFICATE-----
MIIDPDCCAqWgAwIBAgIBATANBgkqhkiG9w0BAQQFADBsMQswCQYDVQQGEwJHQjEP
MA0GA1UECAwGTG9uZG9uMQ0wCwYDVQQKDARDUEFOMRYwFAYDVQQLDA1Qcm90b2Nv
bC1TUERZMSUwIwYDVQQDDBxwcm90b2NvbC1zcGR5LnBlcmxzaXRlLmNvLnVrMB4X
DTEzMDcxMTIyNTAwMVoXDTE0MDcxMTIyNTAwMVowXTELMAkGA1UEBhMCR0IxDzAN
BgNVBAgTBkxvbmRvbjEWMBQGA1UECxMNUHJvdG9jb2wtU1BEWTElMCMGA1UEAxMc
cHJvdG9jb2wtc3BkeS5wZXJsc2l0ZS5jby51azCBnzANBgkqhkiG9w0BAQEFAAOB
jQAwgYkCgYEA718vCl8jGW6jWNer6XnMYJE5JoW7Geka16e6wmMqUTQ/PGJczr7/
VHo/zIFJJl4Lhzy1vb0oW7T+8Kr86hsNcO9bS2+Gg/2QWZVW92zj4l0PTjskQNtW
FQY5glp5e1nAXbk3L9wngrg7AewLge/YlOBVVx7fLwv04d99j3dnzosCAwEAAaOB
/DCB+TAJBgNVHRMEAjAAMCwGCWCGSAGG+EIBDQQfFh1PcGVuU1NMIEdlbmVyYXRl
ZCBDZXJ0aWZpY2F0ZTAdBgNVHQ4EFgQUPethkAfdMVUaIUr8DgFU5JMDraAwgZ4G
A1UdIwSBljCBk4AUQroZb+QfsuuLiO8xg2h7mzdDFh6hcKRuMGwxCzAJBgNVBAYT
AkdCMQ8wDQYDVQQIDAZMb25kb24xDTALBgNVBAoMBENQQU4xFjAUBgNVBAsMDVBy
b3RvY29sLVNQRFkxJTAjBgNVBAMMHHByb3RvY29sLXNwZHkucGVybHNpdGUuY28u
dWuCCQClLIRMddTt5zANBgkqhkiG9w0BAQQFAAOBgQAVu78sz/pl4PwlnofaCvmf
JgAD9RhiYiJie9jg5q8UM+ssVcrIPmUKxkWRjHApbjKvPG92cUZnNS2LGipUcZX4
n8/ByUVbD6r7l9Q/PYoyviiNjghKfWTlN91bM2KQ2H/L6JAdFaAqGzkKmK44nZW5
lO/YRU4AiFUmaex6mbuE0w==
-----END CERTIFICATE-----
